; Listing generated by Microsoft (R) Optimizing Compiler Version 19.31.31104.0 

	TITLE	C:\Users\aleja\Documents\Repositorios\ASD\Trabajos\I. 3C - Límites ILP\p3c_presentacion_alumnos_VS2103_RDTSC\Debug\p3c_rdtsc.obj
	.686P
	.XMM
	include listing.inc
	.model	flat

INCLUDELIB MSVCRTD
INCLUDELIB OLDNAMES

PUBLIC	?a_int@@3PAHA					; a_int
PUBLIC	?b_int@@3PAHA					; b_int
PUBLIC	?a@@3PAMA					; a
PUBLIC	?b@@3PAMA					; b
PUBLIC	?c@@3PAMA					; c
PUBLIC	?d@@3PAMA					; d
PUBLIC	?e@@3PAMA					; e
PUBLIC	?f@@3PAMA					; f
PUBLIC	?g@@3PAMA					; g
PUBLIC	?h@@3PAMA					; h
PUBLIC	?z@@3MA						; z
PUBLIC	?cond1@@3PAHA					; cond1
PUBLIC	?cond2@@3PAHA					; cond2
PUBLIC	?cond3@@3PAHA					; cond3
_BSS	SEGMENT
?a_int@@3PAHA DD 0800H DUP (?)				; a_int
?b_int@@3PAHA DD 0808H DUP (?)				; b_int
?a@@3PAMA DD	0808H DUP (?)				; a
?b@@3PAMA DD	0808H DUP (?)				; b
?c@@3PAMA DD	0808H DUP (?)				; c
?d@@3PAMA DD	0808H DUP (?)				; d
?e@@3PAMA DD	0808H DUP (?)				; e
?f@@3PAMA DD	0808H DUP (?)				; f
?g@@3PAMA DD	0808H DUP (?)				; g
?h@@3PAMA DD	0808H DUP (?)				; h
?z@@3MA	DD	01H DUP (?)				; z
?cond1@@3PAHA DD 0800H DUP (?)				; cond1
?cond2@@3PAHA DD 0808H DUP (?)				; cond2
?cond3@@3PAHA DD 0808H DUP (?)				; cond3
_BSS	ENDS
msvcjmc	SEGMENT
__F32AA0BD_concurrencysal@h DB 01H
__5A3A63C4_sal@h DB 01H
__6BEC7B3D_vadefs@h DB 01H
__1BC54112_vcruntime@h DB 01H
__6569C2CA_corecrt@h DB 01H
__A2143F22_corecrt_stdio_config@h DB 01H
__829E1958_corecrt_wstdio@h DB 01H
__6DFAE8B8_stdio@h DB 01H
__6C20D4D3_corecrt_malloc@h DB 01H
__C9393812_stddef@h DB 01H
__D493B9BD_corecrt_search@h DB 01H
__1473E23E_corecrt_wstdlib@h DB 01H
__AD973B64_limits@h DB 01H
__B49664B7_stdlib@h DB 01H
__741AE07E_corecrt_math@h DB 01H
__91D68F2D_math@h DB 01H
__1157D6BA_corecrt_wtime@h DB 01H
__A0B61CF9_time@h DB 01H
__FF18040F_xkeycheck@h DB 01H
__3779B844_yvals_core@h DB 01H
__62B17962_climits DB 01H
__EDB62062_vcruntime_new@h DB 01H
__5858FF13_vcruntime_new_debug@h DB 01H
__49916C16_crtdbg@h DB 01H
__41ABBF80_crtdefs@h DB 01H
__F1399E15_use_ansi@h DB 01H
__501EED2F_yvals@h DB 01H
__E65E5B90_cstdlib DB 01H
__0A37AC5C_xtr1common DB 01H
__D986D001_intrin0@inl@h DB 01H
__5886068B_intrin0@h DB 01H
__38806D73_cmath DB 01H
__A913C05D_cstdio DB 01H
__CDDAF8CA_errno@h DB 01H
__4041E9ED_vcruntime_string@h DB 01H
__1FEB9909_corecrt_memcpy_s@h DB 01H
__A751F051_corecrt_memory@h DB 01H
__9200769A_corecrt_wstring@h DB 01H
__32E5F013_string@h DB 01H
__AACCF370_cstring DB 01H
__C6E16F6F_corecrt_wconio@h DB 01H
__5DB64B66_corecrt_wctype@h DB 01H
__CB8D9B53_corecrt_wdirect@h DB 01H
__A9063C41_corecrt_share@h DB 01H
__6D390390_corecrt_wio@h DB 01H
__61BDDCD5_corecrt_wprocess@h DB 01H
__64F617E8_types@h DB 01H
__1DC1E279_stat@h DB 01H
__93DC0B45_wchar@h DB 01H
__3398160E_cwchar DB 01H
__4395813D_cstddef DB 01H
__E9ECD68E_initializer_list DB 01H
__264C4909_xstddef DB 01H
__70589338_iosfwd DB 01H
__13E1155B_stdint@h DB 01H
__5B00BAED_cstdint DB 01H
__B1B1C2C4_type_traits DB 01H
__D153DE1B_utility DB 01H
__7F396DA6_xutility DB 01H
__6E95DAE6_iterator DB 01H
__5B81F060_share@h DB 01H
__4926392B___msvc_system_error_abi@hpp DB 01H
__3432B4A6_cerrno DB 01H
__20BB4341_malloc@h DB 01H
__3C5D8049_corecrt_terminate@h DB 01H
__18EF2578_eh@h DB 01H
__50B6FA41_vcruntime_exception@h DB 01H
__89F4D116_exception DB 01H
__158E8E48_float@h DB 01H
__DA570BDA_cfloat DB 01H
__93CAE39E_isa_availability@h DB 01H
__BCB146BE_limits DB 01H
__F32E7743_new DB 01H
__83F85DC0_xatomic@h DB 01H
__BBC6BDD8_xmemory DB 01H
__CF153B44_xstring DB 01H
__00BAEB4B_stdexcept DB 01H
__74E16614_xcall_once@h DB 01H
__F88BF820_xerrc@h DB 01H
__FE33F17B_ctime DB 01H
__C9FD8EE7_xtimec@h DB 01H
__9077A9A6_xthreads@h DB 01H
__D7841A7C_atomic DB 01H
__CBBC7434_system_error DB 01H
__A784D2C3_vcruntime_typeinfo@h DB 01H
__0FE69EBF_typeinfo DB 01H
__001F4A30_memory DB 01H
__2C5A1D3F_xfacet DB 01H
__61AD4BC5___msvc_xlocinfo_types@hpp DB 01H
__B2D2BA86_ctype@h DB 01H
__A6D827FA_cctype DB 01H
__A3D09DBA_locale@h DB 01H
__75F28741_clocale DB 01H
__106F7D77_xlocinfo DB 01H
__102B4F75_xlocale DB 01H
__298A0A64_xiosbase DB 01H
__021A53F7_streambuf DB 01H
__8EAC2962_xlocnum DB 01H
__0BE34D55_ios DB 01H
__033B95B1_ostream DB 01H
__60EBA08B_istream DB 01H
__1D4017B9_iostream DB 01H
__D0DFFAC6_winpackagefamily@h DB 01H
__D0D0F397_winapifamily@h DB 01H
__94A3FDDD_sdkddkver@h DB 01H
__AF2AD727_excpt@h DB 01H
__273EAB94_stdarg@h DB 01H
__1C9F390F_specstrings_undef@h DB 01H
__36A21E95_specstrings_strict@h DB 01H
__452FE810_sdv_driverspecs@h DB 01H
__30F344B3_driverspecs@h DB 01H
__BD886E18_specstrings@h DB 01H
__BF9C347F_kernelspecs@h DB 01H
__79C7FC57_basetsd@h DB 01H
__D545DD43_guiddef@h DB 01H
__DF4F952E_pshpack4@h DB 01H
__7FCD0577_poppack@h DB 01H
__DBC2E99C_pshpack2@h DB 01H
__D6556C4A_pshpack8@h DB 01H
__D98457C5_pshpack1@h DB 01H
__614C4572_apiset@h DB 01H
__8500295D_ktmtypes@h DB 01H
__D5DDFBF3_winnt@h DB 01H
__156BD51A_minwindef@h DB 01H
__F9B9A8F7_windef@h DB 01H
__BD2C4590_apisetcconv@h DB 01H
__18251742_minwinbase@h DB 01H
__23611203_apiquery2@h DB 01H
__C914CD48_processenv@h DB 01H
__996311FD_fileapi@h DB 01H
__41AEF397_fileapifromapp@h DB 01H
__65579FF3_debugapi@h DB 01H
__476FCB5A_utilapiset@h DB 01H
__089D2E42_handleapi@h DB 01H
__B16F04F5_errhandlingapi@h DB 01H
__81CCB02F_fibersapi@h DB 01H
__A9B4C5F0_namedpipeapi@h DB 01H
__C209F2C8_profileapi@h DB 01H
__34C22DC8_heapapi@h DB 01H
__8A238485_ioapiset@h DB 01H
__4826BA69_synchapi@h DB 01H
__6A31599C_interlockedapi@h DB 01H
__439612F0_processthreadsapi@h DB 01H
__7BB37CFA_sysinfoapi@h DB 01H
__5733279A_memoryapi@h DB 01H
__6D078C0D_enclaveapi@h DB 01H
__3663CE50_threadpoollegacyapiset@h DB 01H
__E16717D9_threadpoolapiset@h DB 01H
__4A6035CC_jobapi@h DB 01H
__62EEB553_jobapi2@h DB 01H
__9F22E7EF_wow64apiset@h DB 01H
__E86B4A9A_libloaderapi@h DB 01H
__EB536E54_securitybaseapi@h DB 01H
__E915C287_namespaceapi@h DB 01H
__C66F44F2_systemtopologyapi@h DB 01H
__B6175B28_processtopologyapi@h DB 01H
__9E4AD838_securityappcontainer@h DB 01H
__F599FDAE_realtimeapiset@h DB 01H
__D4435474_winerror@h DB 01H
__F94F31E6_timezoneapi@h DB 01H
__B3ED30D4_winbase@h DB 01H
__E9F7D11F_wingdi@h DB 01H
__AC21C382_tvout@h DB 01H
__DB057BA3_winuser@h DB 01H
__A1BAD304_datetimeapi@h DB 01H
__30E2BD27_winnls@h DB 01H
__B7FF4B97_stringapiset@h DB 01H
__66C87297_wincontypes@h DB 01H
__1317218F_consoleapi@h DB 01H
__8D62D26D_consoleapi2@h DB 01H
__8CA0B85A_consoleapi3@h DB 01H
__CE39E65B_wincon@h DB 01H
__F6801ACC_verrsrc@h DB 01H
__1CB844D9_winver@h DB 01H
__D0CFA71C_reason@h DB 01H
__F3D58382_winreg@h DB 01H
__34C28572_wnnc@h DB 01H
__0617DE59_winnetwk@h DB 01H
__93AC9EF8_cderr@h DB 01H
__3AE29FFA_dde@h DB 01H
__48250249_ddeml@h DB 01H
__4605C6DD_dlgs@h DB 01H
__C826BBA2_lzexpand@h DB 01H
__B8DFB118_mmsyscom@h DB 01H
__EDC2A662_mciapi@h DB 01H
__87B17D5B_mmiscapi@h DB 01H
__0C4862FC_mmiscapi2@h DB 01H
__83F5D08C_playsoundapi@h DB 01H
__CA3F1D44_mmeapi@h DB 01H
__BD2270BE_timeapi@h DB 01H
__397CAA2F_joystickapi@h DB 01H
__05A21AEE_mmsystem@h DB 01H
__6E1DF0B6_nb30@h DB 01H
__75098885_rpcdcep@h DB 01H
__D8AC8DD5_rpcdce@h DB 01H
__2F1118EF_rpcnsi@h DB 01H
__0DE10DFC_rpcnterr@h DB 01H
__4497164E_rpcasync@h DB 01H
__06CA6763_rpc@h DB 01H
__C32EC2F2_shellapi@h DB 01H
__B289ECB8_winperf@h DB 01H
__07EA6B7C_inaddr@h DB 01H
__9ED0251E_winsock@h DB 01H
__FD938996_bcrypt@h DB 01H
__4E32BFB9_ncrypt@h DB 01H
__815AA9AD_dpapi@h DB 01H
__0B2E95FF_wincrypt@h DB 01H
__288F6C52_winefs@h DB 01H
__B3F2ECA2_rpcnsip@h DB 01H
__AFB43543_rpcsal@h DB 01H
__16A21838_rpcndr@h DB 01H
__5314805F_wtypesbase@h DB 01H
__6EEE3703_wtypes@h DB 01H
__A7113148_winioctl@h DB 01H
__C595A37C_winsmcrd@h DB 01H
__42C56FB7_winscard@h DB 01H
__C4703BCA_prsht@h DB 01H
__D4D77F19_winspool@h DB 01H
__B47185B4_unknwnbase@h DB 01H
__B64C33F8_objidlbase@h DB 01H
__EA871F04_cguid@h DB 01H
__C78732AB_combaseapi@h DB 01H
__744BF5DA_unknwn@h DB 01H
__66C491E7_objidl@h DB 01H
__A217658B_oaidl@h DB 01H
__8485F416_propidlbase@h DB 01H
__65805CE1_coml2api@h DB 01H
__C7AD586F_oleidl@h DB 01H
__CBE55221_servprov@h DB 01H
__5B1E268A_msxml@h DB 01H
__1B3D3678_urlmon@h DB 01H
__EC5BC72C_propidl@h DB 01H
__0DD0E8F8_objbase@h DB 01H
__6DA674A0_oleauto@h DB 01H
__F7931962_ole2@h DB 01H
__870E9EB1_commdlg@h DB 01H
__A118E6DC_stralign@h DB 01H
__8B10FA9F_winsvc@h DB 01H
__BEDBF511_mcx@h DB 01H
__D3BCC989_ime_cmodes@h DB 01H
__B1694579_imm@h DB 01H
__CFBCA79E_Windows@h DB 01H
__383FB5F5_QueryPerformanceTiming_rdtsc@h DB 01H
__438567F7_p3c_rdtsc@cpp DB 01H
msvcjmc	ENDS
CONST	SEGMENT
$SG128976 DB	'invalid argument', 00H
	ORG $+3
$SG128977 DB	'%s', 00H
	ORG $+1
$SG128978 DB	'C:\Program Files\Microsoft Visual Studio\2022\Community\'
	DB	'VC\Tools\MSVC\14.31.31103\include\xmemory', 00H
	ORG $+2
$SG128980 DB	00H, 00H
	ORG $+2
$SG128979 DB	'C', 00H, ':', 00H, '\', 00H, 'P', 00H, 'r', 00H, 'o', 00H
	DB	'g', 00H, 'r', 00H, 'a', 00H, 'm', 00H, ' ', 00H, 'F', 00H, 'i'
	DB	00H, 'l', 00H, 'e', 00H, 's', 00H, '\', 00H, 'M', 00H, 'i', 00H
	DB	'c', 00H, 'r', 00H, 'o', 00H, 's', 00H, 'o', 00H, 'f', 00H, 't'
	DB	00H, ' ', 00H, 'V', 00H, 'i', 00H, 's', 00H, 'u', 00H, 'a', 00H
	DB	'l', 00H, ' ', 00H, 'S', 00H, 't', 00H, 'u', 00H, 'd', 00H, 'i'
	DB	00H, 'o', 00H, '\', 00H, '2', 00H, '0', 00H, '2', 00H, '2', 00H
	DB	'\', 00H, 'C', 00H, 'o', 00H, 'm', 00H, 'm', 00H, 'u', 00H, 'n'
	DB	00H, 'i', 00H, 't', 00H, 'y', 00H, '\', 00H, 'V', 00H, 'C', 00H
	DB	'\', 00H, 'T', 00H, 'o', 00H, 'o', 00H, 'l', 00H, 's', 00H, '\'
	DB	00H, 'M', 00H, 'S', 00H, 'V', 00H, 'C', 00H, '\', 00H, '1', 00H
	DB	'4', 00H, '.', 00H, '3', 00H, '1', 00H, '.', 00H, '3', 00H, '1'
	DB	00H, '1', 00H, '0', 00H, '3', 00H, '\', 00H, 'i', 00H, 'n', 00H
	DB	'c', 00H, 'l', 00H, 'u', 00H, 'd', 00H, 'e', 00H, '\', 00H, 'x'
	DB	00H, 'm', 00H, 'e', 00H, 'm', 00H, 'o', 00H, 'r', 00H, 'y', 00H
	DB	00H, 00H
$SG128981 DB	'"', 00H, 'i', 00H, 'n', 00H, 'v', 00H, 'a', 00H, 'l', 00H
	DB	'i', 00H, 'd', 00H, ' ', 00H, 'a', 00H, 'r', 00H, 'g', 00H, 'u'
	DB	00H, 'm', 00H, 'e', 00H, 'n', 00H, 't', 00H, '"', 00H, 00H, 00H
	ORG $+2
$SG121624 DB	', ', 00H
	ORG $+1
$SG129017 DB	'C:\Program Files\Microsoft Visual Studio\2022\Community\'
	DB	'VC\Tools\MSVC\14.31.31103\include\xlocale', 00H
	ORG $+2
$SG121629 DB	' Minimum time in cycles for an element of ''example'' is'
	DB	': ', 00H
	ORG $+3
$SG121625 DB	'ONLY PRINTING OUTPUT VARIABLE TO PREVENT THAT THE COMPIL'
	DB	'ER ELIMINATES FUNCTION CALLS: ', 00H
	ORG $+1
$SG121626 DB	'-Number of elements N_ELEM: ', 00H
	ORG $+3
$SG121627 DB	'-Number of measures example: ', 00H
	ORG $+2
$SG121628 DB	'-Number of measures problem: ', 00H
	ORG $+2
$SG121630 DB	' Minimum time in cycles for an element of ''problem'' is'
	DB	': ', 00H
CONST	ENDS
PUBLIC	?__empty_global_delete@@YAXPAX@Z		; __empty_global_delete
PUBLIC	?__empty_global_delete@@YAXPAXI@Z		; __empty_global_delete
PUBLIC	?vectors_init@@YAXXZ				; vectors_init
PUBLIC	?problem@@YAMXZ					; problem
PUBLIC	?example@@YAMXZ					; example
PUBLIC	_main
PUBLIC	??$endl@DU?$char_traits@D@std@@@std@@YAAAV?$basic_ostream@DU?$char_traits@D@std@@@0@AAV10@@Z ; std::endl<char,std::char_traits<char> >
PUBLIC	??$?6U?$char_traits@D@std@@@std@@YAAAV?$basic_ostream@DU?$char_traits@D@std@@@0@AAV10@PBD@Z ; std::operator<<<std::char_traits<char> >
PUBLIC	??1_Sentry_base@?$basic_ostream@DU?$char_traits@D@std@@@std@@QAE@XZ ; std::basic_ostream<char,std::char_traits<char> >::_Sentry_base::~_Sentry_base
PUBLIC	??0sentry@?$basic_ostream@DU?$char_traits@D@std@@@std@@QAE@AAV12@@Z ; std::basic_ostream<char,std::char_traits<char> >::sentry::sentry
PUBLIC	??1sentry@?$basic_ostream@DU?$char_traits@D@std@@@std@@QAE@XZ ; std::basic_ostream<char,std::char_traits<char> >::sentry::~sentry
PUBLIC	__JustMyCode_Default
PUBLIC	__real@40a00000
PUBLIC	__real@40c00000
PUBLIC	__real@40e00000
PUBLIC	__real@41000000
PUBLIC	__real@41100000
PUBLIC	__real@41200000
PUBLIC	__real@41300000
PUBLIC	__real@46fffe00
EXTRN	__imp__rand:PROC
EXTRN	_strlen:PROC
EXTRN	?uncaught_exception@std@@YA_NXZ:PROC		; std::uncaught_exception
EXTRN	__imp_?good@ios_base@std@@QBE_NXZ:PROC
EXTRN	__imp_?flags@ios_base@std@@QBEHXZ:PROC
EXTRN	__imp_?width@ios_base@std@@QBE_JXZ:PROC
EXTRN	__imp_?width@ios_base@std@@QAE_J_J@Z:PROC
EXTRN	__imp_?sputc@?$basic_streambuf@DU?$char_traits@D@std@@@std@@QAEHD@Z:PROC
EXTRN	__imp_?sputn@?$basic_streambuf@DU?$char_traits@D@std@@@std@@QAE_JPBD_J@Z:PROC
EXTRN	__imp_?setstate@?$basic_ios@DU?$char_traits@D@std@@@std@@QAEXH_N@Z:PROC
EXTRN	__imp_?tie@?$basic_ios@DU?$char_traits@D@std@@@std@@QBEPAV?$basic_ostream@DU?$char_traits@D@std@@@2@XZ:PROC
EXTRN	__imp_?rdbuf@?$basic_ios@DU?$char_traits@D@std@@@std@@QBEPAV?$basic_streambuf@DU?$char_traits@D@std@@@2@XZ:PROC
EXTRN	__imp_?fill@?$basic_ios@DU?$char_traits@D@std@@@std@@QBEDXZ:PROC
EXTRN	__imp_?widen@?$basic_ios@DU?$char_traits@D@std@@@std@@QBEDD@Z:PROC
EXTRN	__imp_?_Osfx@?$basic_ostream@DU?$char_traits@D@std@@@std@@QAEXXZ:PROC
EXTRN	__imp_??6?$basic_ostream@DU?$char_traits@D@std@@@std@@QAEAAV01@P6AAAV01@AAV01@@Z@Z:PROC
EXTRN	__imp_??6?$basic_ostream@DU?$char_traits@D@std@@@std@@QAEAAV01@H@Z:PROC
EXTRN	__imp_??6?$basic_ostream@DU?$char_traits@D@std@@@std@@QAEAAV01@M@Z:PROC
EXTRN	__imp_?put@?$basic_ostream@DU?$char_traits@D@std@@@std@@QAEAAV12@D@Z:PROC
EXTRN	__imp_?flush@?$basic_ostream@DU?$char_traits@D@std@@@std@@QAEAAV12@XZ:PROC
EXTRN	??0QPTimer@@QAE@XZ:PROC				; QPTimer::QPTimer
EXTRN	?NumberOfMeasures@QPTimer@@QAEHXZ:PROC		; QPTimer::NumberOfMeasures
EXTRN	?Start@QPTimer@@QAEXXZ:PROC			; QPTimer::Start
EXTRN	?Stop@QPTimer@@QAEXXZ:PROC			; QPTimer::Stop
EXTRN	?Calibrate@QPTimer@@QAEXXZ:PROC			; QPTimer::Calibrate
EXTRN	?Reset@QPTimer@@QAEXXZ:PROC			; QPTimer::Reset
EXTRN	?PrintMinimumCyclesByIteration@QPTimer@@QAEXPBDH@Z:PROC ; QPTimer::PrintMinimumCyclesByIteration
EXTRN	@__CheckForDebuggerJustMyCode@4:PROC
EXTRN	@__security_check_cookie@4:PROC
EXTRN	___CxxFrameHandler3:PROC
EXTRN	__imp_?cout@std@@3V?$basic_ostream@DU?$char_traits@D@std@@@1@A:BYTE
EXTRN	___security_cookie:DWORD
EXTRN	__fltused:DWORD
;	COMDAT __real@46fffe00
CONST	SEGMENT
__real@46fffe00 DD 046fffe00r			; 32767
CONST	ENDS
;	COMDAT __real@41300000
CONST	SEGMENT
__real@41300000 DD 041300000r			; 11
CONST	ENDS
;	COMDAT __real@41200000
CONST	SEGMENT
__real@41200000 DD 041200000r			; 10
CONST	ENDS
;	COMDAT __real@41100000
CONST	SEGMENT
__real@41100000 DD 041100000r			; 9
CONST	ENDS
;	COMDAT __real@41000000
CONST	SEGMENT
__real@41000000 DD 041000000r			; 8
CONST	ENDS
;	COMDAT __real@40e00000
CONST	SEGMENT
__real@40e00000 DD 040e00000r			; 7
CONST	ENDS
;	COMDAT __real@40c00000
CONST	SEGMENT
__real@40c00000 DD 040c00000r			; 6
CONST	ENDS
;	COMDAT __real@40a00000
CONST	SEGMENT
__real@40a00000 DD 040a00000r			; 5
CONST	ENDS
;	COMDAT voltbl
voltbl	SEGMENT
_volmd	DB	09H
voltbl	ENDS
;	COMDAT xdata$x
xdata$x	SEGMENT
__ehfuncinfo$??1sentry@?$basic_ostream@DU?$char_traits@D@std@@@std@@QAE@XZ DD 019930522H
	DD	00H
	DD	00H
	DD	2 DUP(00H)
	DD	2 DUP(00H)
	DD	00H
	DD	05H
xdata$x	ENDS
;	COMDAT voltbl
voltbl	SEGMENT
_volmd	DB	016H
voltbl	ENDS
;	COMDAT xdata$x
xdata$x	SEGMENT
__unwindtable$??0sentry@?$basic_ostream@DU?$char_traits@D@std@@@std@@QAE@AAV12@@Z DD 0ffffffffH
	DD	FLAT:__unwindfunclet$??0sentry@?$basic_ostream@DU?$char_traits@D@std@@@std@@QAE@AAV12@@Z$0
__ehfuncinfo$??0sentry@?$basic_ostream@DU?$char_traits@D@std@@@std@@QAE@AAV12@@Z DD 019930522H
	DD	01H
	DD	FLAT:__unwindtable$??0sentry@?$basic_ostream@DU?$char_traits@D@std@@@std@@QAE@AAV12@@Z
	DD	2 DUP(00H)
	DD	2 DUP(00H)
	DD	00H
	DD	01H
xdata$x	ENDS
;	COMDAT voltbl
voltbl	SEGMENT
_volmd	DB	09H
voltbl	ENDS
;	COMDAT xdata$x
xdata$x	SEGMENT
__ehfuncinfo$??1_Sentry_base@?$basic_ostream@DU?$char_traits@D@std@@@std@@QAE@XZ DD 019930522H
	DD	00H
	DD	00H
	DD	2 DUP(00H)
	DD	2 DUP(00H)
	DD	00H
	DD	05H
xdata$x	ENDS
;	COMDAT voltbl
voltbl	SEGMENT
_volmd	DB	019H
voltbl	ENDS
;	COMDAT xdata$x
xdata$x	SEGMENT
__catchsym$??$?6U?$char_traits@D@std@@@std@@YAAAV?$basic_ostream@DU?$char_traits@D@std@@@0@AAV10@PBD@Z$11 DD 040H
	DD	00H
	DD	00H
	DD	FLAT:__catch$??$?6U?$char_traits@D@std@@@std@@YAAAV?$basic_ostream@DU?$char_traits@D@std@@@0@AAV10@PBD@Z$0
__tryblocktable$??$?6U?$char_traits@D@std@@@std@@YAAAV?$basic_ostream@DU?$char_traits@D@std@@@0@AAV10@PBD@Z DD 01H
	DD	01H
	DD	02H
	DD	01H
	DD	FLAT:__catchsym$??$?6U?$char_traits@D@std@@@std@@YAAAV?$basic_ostream@DU?$char_traits@D@std@@@0@AAV10@PBD@Z$11
__unwindtable$??$?6U?$char_traits@D@std@@@std@@YAAAV?$basic_ostream@DU?$char_traits@D@std@@@0@AAV10@PBD@Z DD 0ffffffffH
	DD	FLAT:__unwindfunclet$??$?6U?$char_traits@D@std@@@std@@YAAAV?$basic_ostream@DU?$char_traits@D@std@@@0@AAV10@PBD@Z$2
	DD	00H
	DD	00H
	DD	00H
	DD	00H
__ehfuncinfo$??$?6U?$char_traits@D@std@@@std@@YAAAV?$basic_ostream@DU?$char_traits@D@std@@@0@AAV10@PBD@Z DD 019930522H
	DD	03H
	DD	FLAT:__unwindtable$??$?6U?$char_traits@D@std@@@std@@YAAAV?$basic_ostream@DU?$char_traits@D@std@@@0@AAV10@PBD@Z
	DD	01H
	DD	FLAT:__tryblocktable$??$?6U?$char_traits@D@std@@@std@@YAAAV?$basic_ostream@DU?$char_traits@D@std@@@0@AAV10@PBD@Z
	DD	2 DUP(00H)
	DD	00H
	DD	01H
xdata$x	ENDS
; Function compile flags: /Odt
;	COMDAT __JustMyCode_Default
_TEXT	SEGMENT
__JustMyCode_Default PROC				; COMDAT
  00000	55		 push	 ebp
  00001	8b ec		 mov	 ebp, esp
  00003	5d		 pop	 ebp
  00004	c3		 ret	 0
__JustMyCode_Default ENDP
_TEXT	ENDS
; Function compile flags: /Odtp
; File C:\Program Files\Microsoft Visual Studio\2022\Community\VC\Tools\MSVC\14.31.31103\include\ostream
;	COMDAT ??1sentry@?$basic_ostream@DU?$char_traits@D@std@@@std@@QAE@XZ
_TEXT	SEGMENT
_this$ = -20						; size = 4
__Zero_uncaught_exceptions$ = -14			; size = 1
tv72 = -13						; size = 1
__$EHRec$ = -12						; size = 12
??1sentry@?$basic_ostream@DU?$char_traits@D@std@@@std@@QAE@XZ PROC ; std::basic_ostream<char,std::char_traits<char> >::sentry::~sentry, COMDAT
; _this$ = ecx

; 108  :         __CLR_OR_THIS_CALL ~sentry() noexcept {

  00000	55		 push	 ebp
  00001	8b ec		 mov	 ebp, esp
  00003	6a ff		 push	 -1
  00005	68 00 00 00 00	 push	 __ehhandler$??1sentry@?$basic_ostream@DU?$char_traits@D@std@@@std@@QAE@XZ
  0000a	64 a1 00 00 00
	00		 mov	 eax, DWORD PTR fs:0
  00010	50		 push	 eax
  00011	83 ec 08	 sub	 esp, 8
  00014	a1 00 00 00 00	 mov	 eax, DWORD PTR ___security_cookie
  00019	33 c5		 xor	 eax, ebp
  0001b	50		 push	 eax
  0001c	8d 45 f4	 lea	 eax, DWORD PTR __$EHRec$[ebp]
  0001f	64 a3 00 00 00
	00		 mov	 DWORD PTR fs:0, eax
  00025	89 4d ec	 mov	 DWORD PTR _this$[ebp], ecx
  00028	b9 00 00 00 00	 mov	 ecx, OFFSET __033B95B1_ostream
  0002d	e8 00 00 00 00	 call	 @__CheckForDebuggerJustMyCode@4

; 109  : #if !_HAS_EXCEPTIONS
; 110  :             const bool _Zero_uncaught_exceptions = true;
; 111  : #elif _HAS_DEPRECATED_UNCAUGHT_EXCEPTION
; 112  :             const bool _Zero_uncaught_exceptions = !_STD uncaught_exception(); // TRANSITION, ArchivedOS-12000909

  00032	e8 00 00 00 00	 call	 ?uncaught_exception@std@@YA_NXZ ; std::uncaught_exception
  00037	0f b6 c0	 movzx	 eax, al
  0003a	85 c0		 test	 eax, eax
  0003c	75 06		 jne	 SHORT $LN4@sentry
  0003e	c6 45 f3 01	 mov	 BYTE PTR tv72[ebp], 1
  00042	eb 04		 jmp	 SHORT $LN5@sentry
$LN4@sentry:
  00044	c6 45 f3 00	 mov	 BYTE PTR tv72[ebp], 0
$LN5@sentry:
  00048	8a 4d f3	 mov	 cl, BYTE PTR tv72[ebp]
  0004b	88 4d f2	 mov	 BYTE PTR __Zero_uncaught_exceptions$[ebp], cl

; 113  : #else // ^^^ _HAS_DEPRECATED_UNCAUGHT_EXCEPTION / !_HAS_DEPRECATED_UNCAUGHT_EXCEPTION vvv
; 114  :             const bool _Zero_uncaught_exceptions = _STD uncaught_exceptions() == 0;
; 115  : #endif // !_HAS_DEPRECATED_UNCAUGHT_EXCEPTION
; 116  : 
; 117  :             if (_Zero_uncaught_exceptions) {

  0004e	0f b6 55 f2	 movzx	 edx, BYTE PTR __Zero_uncaught_exceptions$[ebp]
  00052	85 d2		 test	 edx, edx
  00054	74 0b		 je	 SHORT $LN1@sentry

; 118  :                 this->_Myostr._Osfx();

  00056	8b 45 ec	 mov	 eax, DWORD PTR _this$[ebp]
  00059	8b 08		 mov	 ecx, DWORD PTR [eax]
  0005b	ff 15 00 00 00
	00		 call	 DWORD PTR __imp_?_Osfx@?$basic_ostream@DU?$char_traits@D@std@@@std@@QAEXXZ
$LN1@sentry:

; 119  :             }
; 120  :         }

  00061	8b 4d ec	 mov	 ecx, DWORD PTR _this$[ebp]
  00064	e8 00 00 00 00	 call	 ??1_Sentry_base@?$basic_ostream@DU?$char_traits@D@std@@@std@@QAE@XZ ; std::basic_ostream<char,std::char_traits<char> >::_Sentry_base::~_Sentry_base
  00069	8b 4d f4	 mov	 ecx, DWORD PTR __$EHRec$[ebp]
  0006c	64 89 0d 00 00
	00 00		 mov	 DWORD PTR fs:0, ecx
  00073	59		 pop	 ecx
  00074	8b e5		 mov	 esp, ebp
  00076	5d		 pop	 ebp
  00077	c3		 ret	 0
  00078	cc		 int	 3
  00079	cc		 int	 3
  0007a	cc		 int	 3
  0007b	cc		 int	 3
  0007c	cc		 int	 3
_TEXT	ENDS
;	COMDAT text$x
text$x	SEGMENT
__ehhandler$??1sentry@?$basic_ostream@DU?$char_traits@D@std@@@std@@QAE@XZ:
  00000	90		 npad	 1
  00001	90		 npad	 1
  00002	8b 54 24 08	 mov	 edx, DWORD PTR [esp+8]
  00006	8d 42 0c	 lea	 eax, DWORD PTR [edx+12]
  00009	8b 4a f4	 mov	 ecx, DWORD PTR [edx-12]
  0000c	33 c8		 xor	 ecx, eax
  0000e	e8 00 00 00 00	 call	 @__security_check_cookie@4
  00013	b8 00 00 00 00	 mov	 eax, OFFSET __ehfuncinfo$??1sentry@?$basic_ostream@DU?$char_traits@D@std@@@std@@QAE@XZ
  00018	e9 00 00 00 00	 jmp	 ___CxxFrameHandler3
text$x	ENDS
??1sentry@?$basic_ostream@DU?$char_traits@D@std@@@std@@QAE@XZ ENDP ; std::basic_ostream<char,std::char_traits<char> >::sentry::~sentry
; Function compile flags: /Odtp
; File C:\Program Files\Microsoft Visual Studio\2022\Community\VC\Tools\MSVC\14.31.31103\include\ostream
;	COMDAT ??0sentry@?$basic_ostream@DU?$char_traits@D@std@@@std@@QAE@AAV12@@Z
_TEXT	SEGMENT
tv160 = -28						; size = 4
__Tied$ = -24						; size = 4
__Rdbuf$2 = -20						; size = 4
_this$ = -16						; size = 4
__$EHRec$ = -12						; size = 12
__Ostr$ = 8						; size = 4
??0sentry@?$basic_ostream@DU?$char_traits@D@std@@@std@@QAE@AAV12@@Z PROC ; std::basic_ostream<char,std::char_traits<char> >::sentry::sentry, COMDAT
; _this$ = ecx

; 91   :         explicit __CLR_OR_THIS_CALL sentry(basic_ostream& _Ostr) : _Sentry_base(_Ostr) {

  00000	55		 push	 ebp
  00001	8b ec		 mov	 ebp, esp
  00003	6a ff		 push	 -1
  00005	68 00 00 00 00	 push	 __ehhandler$??0sentry@?$basic_ostream@DU?$char_traits@D@std@@@std@@QAE@AAV12@@Z
  0000a	64 a1 00 00 00
	00		 mov	 eax, DWORD PTR fs:0
  00010	50		 push	 eax
  00011	83 ec 10	 sub	 esp, 16			; 00000010H
  00014	a1 00 00 00 00	 mov	 eax, DWORD PTR ___security_cookie
  00019	33 c5		 xor	 eax, ebp
  0001b	50		 push	 eax
  0001c	8d 45 f4	 lea	 eax, DWORD PTR __$EHRec$[ebp]
  0001f	64 a3 00 00 00
	00		 mov	 DWORD PTR fs:0, eax
  00025	89 4d f0	 mov	 DWORD PTR _this$[ebp], ecx
  00028	b9 00 00 00 00	 mov	 ecx, OFFSET __033B95B1_ostream
  0002d	e8 00 00 00 00	 call	 @__CheckForDebuggerJustMyCode@4

; 70   :         __CLR_OR_THIS_CALL _Sentry_base(basic_ostream& _Ostr) : _Myostr(_Ostr) { // lock the stream buffer, if there

  00032	8b 45 f0	 mov	 eax, DWORD PTR _this$[ebp]
  00035	8b 4d 08	 mov	 ecx, DWORD PTR __Ostr$[ebp]
  00038	89 08		 mov	 DWORD PTR [eax], ecx

; 71   :             const auto _Rdbuf = _Myostr.rdbuf();

  0003a	8b 55 f0	 mov	 edx, DWORD PTR _this$[ebp]
  0003d	8b 02		 mov	 eax, DWORD PTR [edx]
  0003f	89 45 e4	 mov	 DWORD PTR tv160[ebp], eax
  00042	8b 4d e4	 mov	 ecx, DWORD PTR tv160[ebp]
  00045	8b 11		 mov	 edx, DWORD PTR [ecx]
  00047	8b 4d e4	 mov	 ecx, DWORD PTR tv160[ebp]
  0004a	03 4a 04	 add	 ecx, DWORD PTR [edx+4]
  0004d	ff 15 00 00 00
	00		 call	 DWORD PTR __imp_?rdbuf@?$basic_ios@DU?$char_traits@D@std@@@std@@QBEPAV?$basic_streambuf@DU?$char_traits@D@std@@@2@XZ
  00053	89 45 ec	 mov	 DWORD PTR __Rdbuf$2[ebp], eax

; 72   :             if (_Rdbuf) {

  00056	83 7d ec 00	 cmp	 DWORD PTR __Rdbuf$2[ebp], 0
  0005a	74 0d		 je	 SHORT $LN7@sentry

; 73   :                 _Rdbuf->_Lock();

  0005c	8b 45 ec	 mov	 eax, DWORD PTR __Rdbuf$2[ebp]
  0005f	8b 10		 mov	 edx, DWORD PTR [eax]
  00061	8b 4d ec	 mov	 ecx, DWORD PTR __Rdbuf$2[ebp]
  00064	8b 42 04	 mov	 eax, DWORD PTR [edx+4]
  00067	ff d0		 call	 eax
$LN7@sentry:

; 91   :         explicit __CLR_OR_THIS_CALL sentry(basic_ostream& _Ostr) : _Sentry_base(_Ostr) {

  00069	c7 45 fc 00 00
	00 00		 mov	 DWORD PTR __$EHRec$[ebp+8], 0

; 92   :             if (!_Ostr.good()) {

  00070	8b 4d 08	 mov	 ecx, DWORD PTR __Ostr$[ebp]
  00073	8b 11		 mov	 edx, DWORD PTR [ecx]
  00075	8b 4d 08	 mov	 ecx, DWORD PTR __Ostr$[ebp]
  00078	03 4a 04	 add	 ecx, DWORD PTR [edx+4]
  0007b	ff 15 00 00 00
	00		 call	 DWORD PTR __imp_?good@ios_base@std@@QBE_NXZ
  00081	0f b6 c0	 movzx	 eax, al
  00084	85 c0		 test	 eax, eax
  00086	75 09		 jne	 SHORT $LN2@sentry

; 93   :                 _Ok = false;

  00088	8b 4d f0	 mov	 ecx, DWORD PTR _this$[ebp]
  0008b	c6 41 04 00	 mov	 BYTE PTR [ecx+4], 0

; 94   :                 return;

  0008f	eb 4d		 jmp	 SHORT $LN1@sentry
$LN2@sentry:

; 95   :             }
; 96   : 
; 97   :             const auto _Tied = _Ostr.tie();

  00091	8b 55 08	 mov	 edx, DWORD PTR __Ostr$[ebp]
  00094	8b 02		 mov	 eax, DWORD PTR [edx]
  00096	8b 4d 08	 mov	 ecx, DWORD PTR __Ostr$[ebp]
  00099	03 48 04	 add	 ecx, DWORD PTR [eax+4]
  0009c	ff 15 00 00 00
	00		 call	 DWORD PTR __imp_?tie@?$basic_ios@DU?$char_traits@D@std@@@std@@QBEPAV?$basic_ostream@DU?$char_traits@D@std@@@2@XZ
  000a2	89 45 e8	 mov	 DWORD PTR __Tied$[ebp], eax

; 98   :             if (!_Tied || _Tied == &_Ostr) {

  000a5	83 7d e8 00	 cmp	 DWORD PTR __Tied$[ebp], 0
  000a9	74 08		 je	 SHORT $LN4@sentry
  000ab	8b 4d e8	 mov	 ecx, DWORD PTR __Tied$[ebp]
  000ae	3b 4d 08	 cmp	 ecx, DWORD PTR __Ostr$[ebp]
  000b1	75 09		 jne	 SHORT $LN3@sentry
$LN4@sentry:

; 99   :                 _Ok = true;

  000b3	8b 55 f0	 mov	 edx, DWORD PTR _this$[ebp]
  000b6	c6 42 04 01	 mov	 BYTE PTR [edx+4], 1

; 100  :                 return;

  000ba	eb 22		 jmp	 SHORT $LN1@sentry
$LN3@sentry:

; 101  :             }
; 102  : 
; 103  :             _Tied->flush();

  000bc	8b 4d e8	 mov	 ecx, DWORD PTR __Tied$[ebp]
  000bf	ff 15 00 00 00
	00		 call	 DWORD PTR __imp_?flush@?$basic_ostream@DU?$char_traits@D@std@@@std@@QAEAAV12@XZ

; 104  :             _Ok = _Ostr.good(); // store test only after flushing tie

  000c5	8b 45 08	 mov	 eax, DWORD PTR __Ostr$[ebp]
  000c8	8b 08		 mov	 ecx, DWORD PTR [eax]
  000ca	8b 55 08	 mov	 edx, DWORD PTR __Ostr$[ebp]
  000cd	03 51 04	 add	 edx, DWORD PTR [ecx+4]
  000d0	8b ca		 mov	 ecx, edx
  000d2	ff 15 00 00 00
	00		 call	 DWORD PTR __imp_?good@ios_base@std@@QBE_NXZ
  000d8	8b 4d f0	 mov	 ecx, DWORD PTR _this$[ebp]
  000db	88 41 04	 mov	 BYTE PTR [ecx+4], al
$LN1@sentry:

; 105  :         }

  000de	c7 45 fc ff ff
	ff ff		 mov	 DWORD PTR __$EHRec$[ebp+8], -1
  000e5	8b 45 f0	 mov	 eax, DWORD PTR _this$[ebp]
  000e8	8b 4d f4	 mov	 ecx, DWORD PTR __$EHRec$[ebp]
  000eb	64 89 0d 00 00
	00 00		 mov	 DWORD PTR fs:0, ecx
  000f2	59		 pop	 ecx
  000f3	8b e5		 mov	 esp, ebp
  000f5	5d		 pop	 ebp
  000f6	c2 04 00	 ret	 4
_TEXT	ENDS
;	COMDAT text$x
text$x	SEGMENT
__unwindfunclet$??0sentry@?$basic_ostream@DU?$char_traits@D@std@@@std@@QAE@AAV12@@Z$0:
  00000	8b 4d f0	 mov	 ecx, DWORD PTR _this$[ebp]
  00003	e9 00 00 00 00	 jmp	 ??1_Sentry_base@?$basic_ostream@DU?$char_traits@D@std@@@std@@QAE@XZ ; std::basic_ostream<char,std::char_traits<char> >::_Sentry_base::~_Sentry_base
  00008	cc		 int	 3
  00009	cc		 int	 3
  0000a	cc		 int	 3
  0000b	cc		 int	 3
  0000c	cc		 int	 3
__ehhandler$??0sentry@?$basic_ostream@DU?$char_traits@D@std@@@std@@QAE@AAV12@@Z:
  0000d	90		 npad	 1
  0000e	90		 npad	 1
  0000f	8b 54 24 08	 mov	 edx, DWORD PTR [esp+8]
  00013	8d 42 0c	 lea	 eax, DWORD PTR [edx+12]
  00016	8b 4a ec	 mov	 ecx, DWORD PTR [edx-20]
  00019	33 c8		 xor	 ecx, eax
  0001b	e8 00 00 00 00	 call	 @__security_check_cookie@4
  00020	b8 00 00 00 00	 mov	 eax, OFFSET __ehfuncinfo$??0sentry@?$basic_ostream@DU?$char_traits@D@std@@@std@@QAE@AAV12@@Z
  00025	e9 00 00 00 00	 jmp	 ___CxxFrameHandler3
text$x	ENDS
??0sentry@?$basic_ostream@DU?$char_traits@D@std@@@std@@QAE@AAV12@@Z ENDP ; std::basic_ostream<char,std::char_traits<char> >::sentry::sentry
; Function compile flags: /Odtp
; File C:\Program Files\Microsoft Visual Studio\2022\Community\VC\Tools\MSVC\14.31.31103\include\ostream
;	COMDAT ??1_Sentry_base@?$basic_ostream@DU?$char_traits@D@std@@@std@@QAE@XZ
_TEXT	SEGMENT
_this$ = -24						; size = 4
tv72 = -20						; size = 4
__Rdbuf$ = -16						; size = 4
__$EHRec$ = -12						; size = 12
??1_Sentry_base@?$basic_ostream@DU?$char_traits@D@std@@@std@@QAE@XZ PROC ; std::basic_ostream<char,std::char_traits<char> >::_Sentry_base::~_Sentry_base, COMDAT
; _this$ = ecx

; 77   :         __CLR_OR_THIS_CALL ~_Sentry_base() noexcept { // destroy after unlocking

  00000	55		 push	 ebp
  00001	8b ec		 mov	 ebp, esp
  00003	6a ff		 push	 -1
  00005	68 00 00 00 00	 push	 __ehhandler$??1_Sentry_base@?$basic_ostream@DU?$char_traits@D@std@@@std@@QAE@XZ
  0000a	64 a1 00 00 00
	00		 mov	 eax, DWORD PTR fs:0
  00010	50		 push	 eax
  00011	83 ec 0c	 sub	 esp, 12			; 0000000cH
  00014	a1 00 00 00 00	 mov	 eax, DWORD PTR ___security_cookie
  00019	33 c5		 xor	 eax, ebp
  0001b	50		 push	 eax
  0001c	8d 45 f4	 lea	 eax, DWORD PTR __$EHRec$[ebp]
  0001f	64 a3 00 00 00
	00		 mov	 DWORD PTR fs:0, eax
  00025	89 4d e8	 mov	 DWORD PTR _this$[ebp], ecx
  00028	b9 00 00 00 00	 mov	 ecx, OFFSET __033B95B1_ostream
  0002d	e8 00 00 00 00	 call	 @__CheckForDebuggerJustMyCode@4

; 78   :             const auto _Rdbuf = _Myostr.rdbuf();

  00032	8b 45 e8	 mov	 eax, DWORD PTR _this$[ebp]
  00035	8b 08		 mov	 ecx, DWORD PTR [eax]
  00037	89 4d ec	 mov	 DWORD PTR tv72[ebp], ecx
  0003a	8b 55 ec	 mov	 edx, DWORD PTR tv72[ebp]
  0003d	8b 02		 mov	 eax, DWORD PTR [edx]
  0003f	8b 4d ec	 mov	 ecx, DWORD PTR tv72[ebp]
  00042	03 48 04	 add	 ecx, DWORD PTR [eax+4]
  00045	ff 15 00 00 00
	00		 call	 DWORD PTR __imp_?rdbuf@?$basic_ios@DU?$char_traits@D@std@@@std@@QBEPAV?$basic_streambuf@DU?$char_traits@D@std@@@2@XZ
  0004b	89 45 f0	 mov	 DWORD PTR __Rdbuf$[ebp], eax

; 79   :             if (_Rdbuf) {

  0004e	83 7d f0 00	 cmp	 DWORD PTR __Rdbuf$[ebp], 0
  00052	74 0d		 je	 SHORT $LN3@Sentry_bas

; 80   :                 _Rdbuf->_Unlock();

  00054	8b 4d f0	 mov	 ecx, DWORD PTR __Rdbuf$[ebp]
  00057	8b 11		 mov	 edx, DWORD PTR [ecx]
  00059	8b 4d f0	 mov	 ecx, DWORD PTR __Rdbuf$[ebp]
  0005c	8b 42 08	 mov	 eax, DWORD PTR [edx+8]
  0005f	ff d0		 call	 eax
$LN3@Sentry_bas:

; 81   :             }
; 82   :         }

  00061	8b 4d f4	 mov	 ecx, DWORD PTR __$EHRec$[ebp]
  00064	64 89 0d 00 00
	00 00		 mov	 DWORD PTR fs:0, ecx
  0006b	59		 pop	 ecx
  0006c	8b e5		 mov	 esp, ebp
  0006e	5d		 pop	 ebp
  0006f	c3		 ret	 0
  00070	cc		 int	 3
  00071	cc		 int	 3
  00072	cc		 int	 3
  00073	cc		 int	 3
  00074	cc		 int	 3
_TEXT	ENDS
;	COMDAT text$x
text$x	SEGMENT
__ehhandler$??1_Sentry_base@?$basic_ostream@DU?$char_traits@D@std@@@std@@QAE@XZ:
  00000	90		 npad	 1
  00001	90		 npad	 1
  00002	8b 54 24 08	 mov	 edx, DWORD PTR [esp+8]
  00006	8d 42 0c	 lea	 eax, DWORD PTR [edx+12]
  00009	8b 4a f0	 mov	 ecx, DWORD PTR [edx-16]
  0000c	33 c8		 xor	 ecx, eax
  0000e	e8 00 00 00 00	 call	 @__security_check_cookie@4
  00013	b8 00 00 00 00	 mov	 eax, OFFSET __ehfuncinfo$??1_Sentry_base@?$basic_ostream@DU?$char_traits@D@std@@@std@@QAE@XZ
  00018	e9 00 00 00 00	 jmp	 ___CxxFrameHandler3
text$x	ENDS
??1_Sentry_base@?$basic_ostream@DU?$char_traits@D@std@@@std@@QAE@XZ ENDP ; std::basic_ostream<char,std::char_traits<char> >::_Sentry_base::~_Sentry_base
; Function compile flags: /Odtp
; File C:\Program Files\Microsoft Visual Studio\2022\Community\VC\Tools\MSVC\14.31.31103\include\ostream
; File C:\Program Files\Microsoft Visual Studio\2022\Community\VC\Tools\MSVC\14.31.31103\include\xstring
; File C:\Program Files\Microsoft Visual Studio\2022\Community\VC\Tools\MSVC\14.31.31103\include\ostream
; File C:\Program Files\Microsoft Visual Studio\2022\Community\VC\Tools\MSVC\14.31.31103\include\xstring
; File C:\Program Files\Microsoft Visual Studio\2022\Community\VC\Tools\MSVC\14.31.31103\include\ostream
; File C:\Program Files\Microsoft Visual Studio\2022\Community\VC\Tools\MSVC\14.31.31103\include\xstring
; File C:\Program Files\Microsoft Visual Studio\2022\Community\VC\Tools\MSVC\14.31.31103\include\ostream
;	COMDAT ??$?6U?$char_traits@D@std@@@std@@YAAAV?$basic_ostream@DU?$char_traits@D@std@@@0@AAV10@PBD@Z
_TEXT	SEGMENT
__Ok$ = -140						; size = 8
tv322 = -132						; size = 8
tv397 = -124						; size = 8
tv385 = -116						; size = 8
$T2 = -108						; size = 4
$T3 = -104						; size = 4
$T4 = -100						; size = 4
tv325 = -96						; size = 4
tv324 = -92						; size = 4
tv321 = -88						; size = 4
$T5 = -84						; size = 4
$T6 = -80						; size = 4
tv320 = -76						; size = 4
tv307 = -72						; size = 4
tv137 = -68						; size = 4
$T7 = -64						; size = 4
tv135 = -60						; size = 8
tv186 = -52						; size = 4
tv140 = -48						; size = 4
__Count$ = -44						; size = 8
__Pad$ = -36						; size = 8
$T8 = -25						; size = 1
tv323 = -24						; size = 1
$T9 = -23						; size = 1
tv334 = -22						; size = 1
$T10 = -21						; size = 1
__State$ = -20						; size = 4
__$EHRec$ = -16						; size = 16
__Ostr$ = 8						; size = 4
__Val$ = 12						; size = 4
??$?6U?$char_traits@D@std@@@std@@YAAAV?$basic_ostream@DU?$char_traits@D@std@@@0@AAV10@PBD@Z PROC ; std::operator<<<std::char_traits<char> >, COMDAT

; 757  : basic_ostream<char, _Traits>& operator<<(basic_ostream<char, _Traits>& _Ostr, const char* _Val) {

  00000	55		 push	 ebp
  00001	8b ec		 mov	 ebp, esp
  00003	6a ff		 push	 -1
  00005	68 00 00 00 00	 push	 __ehhandler$??$?6U?$char_traits@D@std@@@std@@YAAAV?$basic_ostream@DU?$char_traits@D@std@@@0@AAV10@PBD@Z
  0000a	64 a1 00 00 00
	00		 mov	 eax, DWORD PTR fs:0
  00010	50		 push	 eax
  00011	51		 push	 ecx
  00012	83 ec 7c	 sub	 esp, 124		; 0000007cH
  00015	53		 push	 ebx
  00016	56		 push	 esi
  00017	57		 push	 edi
  00018	a1 00 00 00 00	 mov	 eax, DWORD PTR ___security_cookie
  0001d	33 c5		 xor	 eax, ebp
  0001f	50		 push	 eax
  00020	8d 45 f4	 lea	 eax, DWORD PTR __$EHRec$[ebp+4]
  00023	64 a3 00 00 00
	00		 mov	 DWORD PTR fs:0, eax
  00029	89 65 f0	 mov	 DWORD PTR __$EHRec$[ebp], esp
  0002c	b9 00 00 00 00	 mov	 ecx, OFFSET __033B95B1_ostream
  00031	e8 00 00 00 00	 call	 @__CheckForDebuggerJustMyCode@4

; 758  :     // insert NTBS into char stream
; 759  :     using _Elem = char;
; 760  :     using _Myos = basic_ostream<_Elem, _Traits>;
; 761  : 
; 762  :     ios_base::iostate _State = ios_base::goodbit;

  00036	c7 45 ec 00 00
	00 00		 mov	 DWORD PTR __State$[ebp], 0
; File C:\Program Files\Microsoft Visual Studio\2022\Community\VC\Tools\MSVC\14.31.31103\include\xstring

; 396  :         return _CSTD strlen(reinterpret_cast<const char*>(_First));

  0003d	8b 45 0c	 mov	 eax, DWORD PTR __Val$[ebp]
  00040	50		 push	 eax
  00041	e8 00 00 00 00	 call	 _strlen
  00046	83 c4 04	 add	 esp, 4
  00049	89 45 c0	 mov	 DWORD PTR $T7[ebp], eax
; File C:\Program Files\Microsoft Visual Studio\2022\Community\VC\Tools\MSVC\14.31.31103\include\ostream

; 763  :     streamsize _Count        = static_cast<streamsize>(_Traits::length(_Val));

  0004c	8b 4d c0	 mov	 ecx, DWORD PTR $T7[ebp]
  0004f	33 d2		 xor	 edx, edx
  00051	89 4d d4	 mov	 DWORD PTR __Count$[ebp], ecx
  00054	89 55 d8	 mov	 DWORD PTR __Count$[ebp+4], edx

; 764  :     streamsize _Pad          = _Ostr.width() <= 0 || _Ostr.width() <= _Count ? 0 : _Ostr.width() - _Count;

  00057	8b 45 08	 mov	 eax, DWORD PTR __Ostr$[ebp]
  0005a	8b 08		 mov	 ecx, DWORD PTR [eax]
  0005c	8b 55 08	 mov	 edx, DWORD PTR __Ostr$[ebp]
  0005f	03 51 04	 add	 edx, DWORD PTR [ecx+4]
  00062	8b ca		 mov	 ecx, edx
  00064	ff 15 00 00 00
	00		 call	 DWORD PTR __imp_?width@ios_base@std@@QBE_JXZ
  0006a	89 45 8c	 mov	 DWORD PTR tv385[ebp], eax
  0006d	89 55 90	 mov	 DWORD PTR tv385[ebp+4], edx
  00070	83 7d 90 00	 cmp	 DWORD PTR tv385[ebp+4], 0
  00074	7c 52		 jl	 SHORT $LN17@operator
  00076	7f 06		 jg	 SHORT $LN64@operator
  00078	83 7d 8c 00	 cmp	 DWORD PTR tv385[ebp], 0
  0007c	76 4a		 jbe	 SHORT $LN17@operator
$LN64@operator:
  0007e	8b 45 08	 mov	 eax, DWORD PTR __Ostr$[ebp]
  00081	8b 08		 mov	 ecx, DWORD PTR [eax]
  00083	8b 55 08	 mov	 edx, DWORD PTR __Ostr$[ebp]
  00086	03 51 04	 add	 edx, DWORD PTR [ecx+4]
  00089	8b ca		 mov	 ecx, edx
  0008b	ff 15 00 00 00
	00		 call	 DWORD PTR __imp_?width@ios_base@std@@QBE_JXZ
  00091	89 45 84	 mov	 DWORD PTR tv397[ebp], eax
  00094	89 55 88	 mov	 DWORD PTR tv397[ebp+4], edx
  00097	8b 45 88	 mov	 eax, DWORD PTR tv397[ebp+4]
  0009a	3b 45 d8	 cmp	 eax, DWORD PTR __Count$[ebp+4]
  0009d	7c 29		 jl	 SHORT $LN17@operator
  0009f	7f 08		 jg	 SHORT $LN65@operator
  000a1	8b 4d 84	 mov	 ecx, DWORD PTR tv397[ebp]
  000a4	3b 4d d4	 cmp	 ecx, DWORD PTR __Count$[ebp]
  000a7	76 1f		 jbe	 SHORT $LN17@operator
$LN65@operator:
  000a9	8b 55 08	 mov	 edx, DWORD PTR __Ostr$[ebp]
  000ac	8b 02		 mov	 eax, DWORD PTR [edx]
  000ae	8b 4d 08	 mov	 ecx, DWORD PTR __Ostr$[ebp]
  000b1	03 48 04	 add	 ecx, DWORD PTR [eax+4]
  000b4	ff 15 00 00 00
	00		 call	 DWORD PTR __imp_?width@ios_base@std@@QBE_JXZ
  000ba	2b 45 d4	 sub	 eax, DWORD PTR __Count$[ebp]
  000bd	1b 55 d8	 sbb	 edx, DWORD PTR __Count$[ebp+4]
  000c0	89 45 c4	 mov	 DWORD PTR tv135[ebp], eax
  000c3	89 55 c8	 mov	 DWORD PTR tv135[ebp+4], edx
  000c6	eb 09		 jmp	 SHORT $LN18@operator
$LN17@operator:
  000c8	c5 f8 57 c0	 vxorps	 xmm0, xmm0, xmm0
  000cc	c5 f9 13 45 c4	 vmovlpd QWORD PTR tv135[ebp], xmm0
$LN18@operator:
  000d1	8b 4d c4	 mov	 ecx, DWORD PTR tv135[ebp]
  000d4	8b 55 c8	 mov	 edx, DWORD PTR tv135[ebp+4]
  000d7	89 4d dc	 mov	 DWORD PTR __Pad$[ebp], ecx
  000da	89 55 e0	 mov	 DWORD PTR __Pad$[ebp+4], edx

; 765  :     const typename _Myos::sentry _Ok(_Ostr);

  000dd	8b 45 08	 mov	 eax, DWORD PTR __Ostr$[ebp]
  000e0	50		 push	 eax
  000e1	8d 8d 74 ff ff
	ff		 lea	 ecx, DWORD PTR __Ok$[ebp]
  000e7	e8 00 00 00 00	 call	 ??0sentry@?$basic_ostream@DU?$char_traits@D@std@@@std@@QAE@AAV12@@Z ; std::basic_ostream<char,std::char_traits<char> >::sentry::sentry
  000ec	c7 45 fc 00 00
	00 00		 mov	 DWORD PTR __$EHRec$[ebp+12], 0

; 124  :             return _Ok;

  000f3	8a 8d 78 ff ff
	ff		 mov	 cl, BYTE PTR __Ok$[ebp+4]
  000f9	88 4d eb	 mov	 BYTE PTR $T10[ebp], cl

; 766  : 
; 767  :     if (!_Ok) {

  000fc	0f b6 55 eb	 movzx	 edx, BYTE PTR $T10[ebp]
  00100	85 d2		 test	 edx, edx
  00102	75 0e		 jne	 SHORT $LN8@operator

; 768  :         _State |= ios_base::badbit;

  00104	8b 45 ec	 mov	 eax, DWORD PTR __State$[ebp]
  00107	83 c8 04	 or	 eax, 4
  0010a	89 45 ec	 mov	 DWORD PTR __State$[ebp], eax

; 769  :     } else { // state okay, insert

  0010d	e9 1b 02 00 00	 jmp	 $LN9@operator
$LN8@operator:

; 770  :         _TRY_IO_BEGIN

  00112	c6 45 fc 01	 mov	 BYTE PTR __$EHRec$[ebp+12], 1

; 771  :         if ((_Ostr.flags() & ios_base::adjustfield) != ios_base::left) {

  00116	8b 4d 08	 mov	 ecx, DWORD PTR __Ostr$[ebp]
  00119	8b 11		 mov	 edx, DWORD PTR [ecx]
  0011b	8b 4d 08	 mov	 ecx, DWORD PTR __Ostr$[ebp]
  0011e	03 4a 04	 add	 ecx, DWORD PTR [edx+4]
  00121	ff 15 00 00 00
	00		 call	 DWORD PTR __imp_?flags@ios_base@std@@QBEHXZ
  00127	89 45 bc	 mov	 DWORD PTR tv137[ebp], eax
  0012a	8b 45 bc	 mov	 eax, DWORD PTR tv137[ebp]
  0012d	25 c0 01 00 00	 and	 eax, 448		; 000001c0H
  00132	83 f8 40	 cmp	 eax, 64			; 00000040H
  00135	0f 84 aa 00 00
	00		 je	 $LN11@operator

; 772  :             for (; 0 < _Pad; --_Pad) { // pad on left

  0013b	eb 12		 jmp	 SHORT $LN4@operator
$LN2@operator:
  0013d	8b 4d dc	 mov	 ecx, DWORD PTR __Pad$[ebp]
  00140	83 e9 01	 sub	 ecx, 1
  00143	8b 55 e0	 mov	 edx, DWORD PTR __Pad$[ebp+4]
  00146	83 da 00	 sbb	 edx, 0
  00149	89 4d dc	 mov	 DWORD PTR __Pad$[ebp], ecx
  0014c	89 55 e0	 mov	 DWORD PTR __Pad$[ebp+4], edx
$LN4@operator:
  0014f	83 7d e0 00	 cmp	 DWORD PTR __Pad$[ebp+4], 0
  00153	0f 8c 8c 00 00
	00		 jl	 $LN11@operator
  00159	7f 0a		 jg	 SHORT $LN66@operator
  0015b	83 7d dc 00	 cmp	 DWORD PTR __Pad$[ebp], 0
  0015f	0f 86 80 00 00
	00		 jbe	 $LN11@operator
$LN66@operator:

; 773  :                 if (_Traits::eq_int_type(_Traits::eof(), _Ostr.rdbuf()->sputc(_Ostr.fill()))) {

  00165	8b 45 08	 mov	 eax, DWORD PTR __Ostr$[ebp]
  00168	8b 08		 mov	 ecx, DWORD PTR [eax]
  0016a	8b 55 08	 mov	 edx, DWORD PTR __Ostr$[ebp]
  0016d	03 51 04	 add	 edx, DWORD PTR [ecx+4]
  00170	8b ca		 mov	 ecx, edx
  00172	ff 15 00 00 00
	00		 call	 DWORD PTR __imp_?fill@?$basic_ios@DU?$char_traits@D@std@@@std@@QBEDXZ
  00178	88 45 ea	 mov	 BYTE PTR tv334[ebp], al
  0017b	8b 45 08	 mov	 eax, DWORD PTR __Ostr$[ebp]
  0017e	8b 08		 mov	 ecx, DWORD PTR [eax]
  00180	8b 55 08	 mov	 edx, DWORD PTR __Ostr$[ebp]
  00183	03 51 04	 add	 edx, DWORD PTR [ecx+4]
  00186	8b ca		 mov	 ecx, edx
  00188	ff 15 00 00 00
	00		 call	 DWORD PTR __imp_?rdbuf@?$basic_ios@DU?$char_traits@D@std@@@std@@QBEPAV?$basic_streambuf@DU?$char_traits@D@std@@@2@XZ
  0018e	89 45 b8	 mov	 DWORD PTR tv307[ebp], eax
  00191	0f b6 45 ea	 movzx	 eax, BYTE PTR tv334[ebp]
  00195	50		 push	 eax
  00196	8b 4d b8	 mov	 ecx, DWORD PTR tv307[ebp]
  00199	ff 15 00 00 00
	00		 call	 DWORD PTR __imp_?sputc@?$basic_streambuf@DU?$char_traits@D@std@@@std@@QAEHD@Z
  0019f	89 45 b4	 mov	 DWORD PTR tv320[ebp], eax
  001a2	8b 4d b4	 mov	 ecx, DWORD PTR tv320[ebp]
  001a5	89 4d ac	 mov	 DWORD PTR $T5[ebp], ecx
; File C:\Program Files\Microsoft Visual Studio\2022\Community\VC\Tools\MSVC\14.31.31103\include\xstring

; 462  :         return static_cast<int_type>(EOF);

  001a8	c7 45 b0 ff ff
	ff ff		 mov	 DWORD PTR $T6[ebp], -1

; 454  :         return _Left == _Right;

  001af	8b 55 b0	 mov	 edx, DWORD PTR $T6[ebp]
  001b2	3b 55 ac	 cmp	 edx, DWORD PTR $T5[ebp]
  001b5	75 09		 jne	 SHORT $LN43@operator
  001b7	c7 45 d0 01 00
	00 00		 mov	 DWORD PTR tv140[ebp], 1
  001be	eb 07		 jmp	 SHORT $LN44@operator
$LN43@operator:
  001c0	c7 45 d0 00 00
	00 00		 mov	 DWORD PTR tv140[ebp], 0
$LN44@operator:
  001c7	8a 45 d0	 mov	 al, BYTE PTR tv140[ebp]
  001ca	88 45 e9	 mov	 BYTE PTR $T9[ebp], al
; File C:\Program Files\Microsoft Visual Studio\2022\Community\VC\Tools\MSVC\14.31.31103\include\ostream

; 773  :                 if (_Traits::eq_int_type(_Traits::eof(), _Ostr.rdbuf()->sputc(_Ostr.fill()))) {

  001cd	0f b6 4d e9	 movzx	 ecx, BYTE PTR $T9[ebp]
  001d1	85 c9		 test	 ecx, ecx
  001d3	74 0b		 je	 SHORT $LN12@operator

; 774  :                     _State |= ios_base::badbit; // insertion failed, quit

  001d5	8b 55 ec	 mov	 edx, DWORD PTR __State$[ebp]
  001d8	83 ca 04	 or	 edx, 4
  001db	89 55 ec	 mov	 DWORD PTR __State$[ebp], edx

; 775  :                     break;

  001de	eb 05		 jmp	 SHORT $LN11@operator
$LN12@operator:

; 776  :                 }
; 777  :             }

  001e0	e9 58 ff ff ff	 jmp	 $LN2@operator
$LN11@operator:

; 778  :         }
; 779  : 
; 780  :         if (_State == ios_base::goodbit && _Ostr.rdbuf()->sputn(_Val, _Count) != _Count) {

  001e5	83 7d ec 00	 cmp	 DWORD PTR __State$[ebp], 0
  001e9	75 50		 jne	 SHORT $LN13@operator
  001eb	8b 45 08	 mov	 eax, DWORD PTR __Ostr$[ebp]
  001ee	8b 08		 mov	 ecx, DWORD PTR [eax]
  001f0	8b 55 08	 mov	 edx, DWORD PTR __Ostr$[ebp]
  001f3	03 51 04	 add	 edx, DWORD PTR [ecx+4]
  001f6	8b ca		 mov	 ecx, edx
  001f8	ff 15 00 00 00
	00		 call	 DWORD PTR __imp_?rdbuf@?$basic_ios@DU?$char_traits@D@std@@@std@@QBEPAV?$basic_streambuf@DU?$char_traits@D@std@@@2@XZ
  001fe	89 45 a8	 mov	 DWORD PTR tv321[ebp], eax
  00201	8b 45 d8	 mov	 eax, DWORD PTR __Count$[ebp+4]
  00204	50		 push	 eax
  00205	8b 4d d4	 mov	 ecx, DWORD PTR __Count$[ebp]
  00208	51		 push	 ecx
  00209	8b 55 0c	 mov	 edx, DWORD PTR __Val$[ebp]
  0020c	52		 push	 edx
  0020d	8b 4d a8	 mov	 ecx, DWORD PTR tv321[ebp]
  00210	ff 15 00 00 00
	00		 call	 DWORD PTR __imp_?sputn@?$basic_streambuf@DU?$char_traits@D@std@@@std@@QAE_JPBD_J@Z
  00216	89 85 7c ff ff
	ff		 mov	 DWORD PTR tv322[ebp], eax
  0021c	89 55 80	 mov	 DWORD PTR tv322[ebp+4], edx
  0021f	8b 85 7c ff ff
	ff		 mov	 eax, DWORD PTR tv322[ebp]
  00225	3b 45 d4	 cmp	 eax, DWORD PTR __Count$[ebp]
  00228	75 08		 jne	 SHORT $LN67@operator
  0022a	8b 4d 80	 mov	 ecx, DWORD PTR tv322[ebp+4]
  0022d	3b 4d d8	 cmp	 ecx, DWORD PTR __Count$[ebp+4]
  00230	74 09		 je	 SHORT $LN13@operator
$LN67@operator:

; 781  :             _State |= ios_base::badbit;

  00232	8b 55 ec	 mov	 edx, DWORD PTR __State$[ebp]
  00235	83 ca 04	 or	 edx, 4
  00238	89 55 ec	 mov	 DWORD PTR __State$[ebp], edx
$LN13@operator:

; 782  :         }
; 783  : 
; 784  :         if (_State == ios_base::goodbit) {

  0023b	83 7d ec 00	 cmp	 DWORD PTR __State$[ebp], 0
  0023f	0f 85 a2 00 00
	00		 jne	 $LN14@operator

; 785  :             for (; 0 < _Pad; --_Pad) { // pad on right

  00245	eb 12		 jmp	 SHORT $LN7@operator
$LN5@operator:
  00247	8b 45 dc	 mov	 eax, DWORD PTR __Pad$[ebp]
  0024a	83 e8 01	 sub	 eax, 1
  0024d	8b 4d e0	 mov	 ecx, DWORD PTR __Pad$[ebp+4]
  00250	83 d9 00	 sbb	 ecx, 0
  00253	89 45 dc	 mov	 DWORD PTR __Pad$[ebp], eax
  00256	89 4d e0	 mov	 DWORD PTR __Pad$[ebp+4], ecx
$LN7@operator:
  00259	83 7d e0 00	 cmp	 DWORD PTR __Pad$[ebp+4], 0
  0025d	0f 8c 84 00 00
	00		 jl	 $LN14@operator
  00263	7f 06		 jg	 SHORT $LN68@operator
  00265	83 7d dc 00	 cmp	 DWORD PTR __Pad$[ebp], 0
  00269	76 7c		 jbe	 SHORT $LN14@operator
$LN68@operator:

; 786  :                 if (_Traits::eq_int_type(_Traits::eof(), _Ostr.rdbuf()->sputc(_Ostr.fill()))) {

  0026b	8b 55 08	 mov	 edx, DWORD PTR __Ostr$[ebp]
  0026e	8b 02		 mov	 eax, DWORD PTR [edx]
  00270	8b 4d 08	 mov	 ecx, DWORD PTR __Ostr$[ebp]
  00273	03 48 04	 add	 ecx, DWORD PTR [eax+4]
  00276	ff 15 00 00 00
	00		 call	 DWORD PTR __imp_?fill@?$basic_ios@DU?$char_traits@D@std@@@std@@QBEDXZ
  0027c	88 45 e8	 mov	 BYTE PTR tv323[ebp], al
  0027f	8b 4d 08	 mov	 ecx, DWORD PTR __Ostr$[ebp]
  00282	8b 11		 mov	 edx, DWORD PTR [ecx]
  00284	8b 4d 08	 mov	 ecx, DWORD PTR __Ostr$[ebp]
  00287	03 4a 04	 add	 ecx, DWORD PTR [edx+4]
  0028a	ff 15 00 00 00
	00		 call	 DWORD PTR __imp_?rdbuf@?$basic_ios@DU?$char_traits@D@std@@@std@@QBEPAV?$basic_streambuf@DU?$char_traits@D@std@@@2@XZ
  00290	89 45 a4	 mov	 DWORD PTR tv324[ebp], eax
  00293	0f b6 45 e8	 movzx	 eax, BYTE PTR tv323[ebp]
  00297	50		 push	 eax
  00298	8b 4d a4	 mov	 ecx, DWORD PTR tv324[ebp]
  0029b	ff 15 00 00 00
	00		 call	 DWORD PTR __imp_?sputc@?$basic_streambuf@DU?$char_traits@D@std@@@std@@QAEHD@Z
  002a1	89 45 a0	 mov	 DWORD PTR tv325[ebp], eax
  002a4	8b 4d a0	 mov	 ecx, DWORD PTR tv325[ebp]
  002a7	89 4d 98	 mov	 DWORD PTR $T3[ebp], ecx
; File C:\Program Files\Microsoft Visual Studio\2022\Community\VC\Tools\MSVC\14.31.31103\include\xstring

; 462  :         return static_cast<int_type>(EOF);

  002aa	c7 45 9c ff ff
	ff ff		 mov	 DWORD PTR $T4[ebp], -1

; 454  :         return _Left == _Right;

  002b1	8b 55 9c	 mov	 edx, DWORD PTR $T4[ebp]
  002b4	3b 55 98	 cmp	 edx, DWORD PTR $T3[ebp]
  002b7	75 09		 jne	 SHORT $LN51@operator
  002b9	c7 45 cc 01 00
	00 00		 mov	 DWORD PTR tv186[ebp], 1
  002c0	eb 07		 jmp	 SHORT $LN52@operator
$LN51@operator:
  002c2	c7 45 cc 00 00
	00 00		 mov	 DWORD PTR tv186[ebp], 0
$LN52@operator:
  002c9	8a 45 cc	 mov	 al, BYTE PTR tv186[ebp]
  002cc	88 45 e7	 mov	 BYTE PTR $T8[ebp], al
; File C:\Program Files\Microsoft Visual Studio\2022\Community\VC\Tools\MSVC\14.31.31103\include\ostream

; 786  :                 if (_Traits::eq_int_type(_Traits::eof(), _Ostr.rdbuf()->sputc(_Ostr.fill()))) {

  002cf	0f b6 4d e7	 movzx	 ecx, BYTE PTR $T8[ebp]
  002d3	85 c9		 test	 ecx, ecx
  002d5	74 0b		 je	 SHORT $LN15@operator

; 787  :                     _State |= ios_base::badbit; // insertion failed, quit

  002d7	8b 55 ec	 mov	 edx, DWORD PTR __State$[ebp]
  002da	83 ca 04	 or	 edx, 4
  002dd	89 55 ec	 mov	 DWORD PTR __State$[ebp], edx

; 788  :                     break;

  002e0	eb 05		 jmp	 SHORT $LN14@operator
$LN15@operator:

; 789  :                 }
; 790  :             }

  002e2	e9 60 ff ff ff	 jmp	 $LN5@operator
$LN14@operator:

; 791  :         }
; 792  : 
; 793  :         _Ostr.width(0);

  002e7	6a 00		 push	 0
  002e9	6a 00		 push	 0
  002eb	8b 45 08	 mov	 eax, DWORD PTR __Ostr$[ebp]
  002ee	8b 08		 mov	 ecx, DWORD PTR [eax]
  002f0	8b 55 08	 mov	 edx, DWORD PTR __Ostr$[ebp]
  002f3	03 51 04	 add	 edx, DWORD PTR [ecx+4]
  002f6	8b ca		 mov	 ecx, edx
  002f8	ff 15 00 00 00
	00		 call	 DWORD PTR __imp_?width@ios_base@std@@QAE_J_J@Z
  002fe	eb 1d		 jmp	 SHORT $LN19@operator
__catch$??$?6U?$char_traits@D@std@@@std@@YAAAV?$basic_ostream@DU?$char_traits@D@std@@@0@AAV10@PBD@Z$0:

; 794  :         _CATCH_IO_(ios_base, _Ostr)

  00300	6a 01		 push	 1
  00302	6a 04		 push	 4
  00304	8b 45 08	 mov	 eax, DWORD PTR __Ostr$[ebp]
  00307	8b 08		 mov	 ecx, DWORD PTR [eax]
  00309	8b 55 08	 mov	 edx, DWORD PTR __Ostr$[ebp]
  0030c	03 51 04	 add	 edx, DWORD PTR [ecx+4]
  0030f	8b ca		 mov	 ecx, edx
  00311	ff 15 00 00 00
	00		 call	 DWORD PTR __imp_?setstate@?$basic_ios@DU?$char_traits@D@std@@@std@@QAEXH_N@Z
  00317	b8 00 00 00 00	 mov	 eax, $LN23@operator
  0031c	c3		 ret	 0
$LN19@operator:
  0031d	c7 45 fc 00 00
	00 00		 mov	 DWORD PTR __$EHRec$[ebp+12], 0
  00324	eb 07		 jmp	 SHORT $LN9@operator
$LN23@operator:
; File C:\Program Files\Microsoft Visual Studio\2022\Community\VC\Tools\MSVC\14.31.31103\include\xstring
  00326	c7 45 fc 00 00
	00 00		 mov	 DWORD PTR __$EHRec$[ebp+12], 0
$LN9@operator:
; File C:\Program Files\Microsoft Visual Studio\2022\Community\VC\Tools\MSVC\14.31.31103\include\ostream

; 795  :     }
; 796  : 
; 797  :     _Ostr.setstate(_State);

  0032d	6a 00		 push	 0
  0032f	8b 45 ec	 mov	 eax, DWORD PTR __State$[ebp]
  00332	50		 push	 eax
  00333	8b 4d 08	 mov	 ecx, DWORD PTR __Ostr$[ebp]
  00336	8b 11		 mov	 edx, DWORD PTR [ecx]
  00338	8b 4d 08	 mov	 ecx, DWORD PTR __Ostr$[ebp]
  0033b	03 4a 04	 add	 ecx, DWORD PTR [edx+4]
  0033e	ff 15 00 00 00
	00		 call	 DWORD PTR __imp_?setstate@?$basic_ios@DU?$char_traits@D@std@@@std@@QAEXH_N@Z

; 798  :     return _Ostr;

  00344	8b 45 08	 mov	 eax, DWORD PTR __Ostr$[ebp]
  00347	89 45 94	 mov	 DWORD PTR $T2[ebp], eax
  0034a	c7 45 fc ff ff
	ff ff		 mov	 DWORD PTR __$EHRec$[ebp+12], -1
  00351	8d 8d 74 ff ff
	ff		 lea	 ecx, DWORD PTR __Ok$[ebp]
  00357	e8 00 00 00 00	 call	 ??1sentry@?$basic_ostream@DU?$char_traits@D@std@@@std@@QAE@XZ ; std::basic_ostream<char,std::char_traits<char> >::sentry::~sentry
  0035c	8b 45 94	 mov	 eax, DWORD PTR $T2[ebp]

; 799  : }

  0035f	8b 4d f4	 mov	 ecx, DWORD PTR __$EHRec$[ebp+4]
  00362	64 89 0d 00 00
	00 00		 mov	 DWORD PTR fs:0, ecx
  00369	59		 pop	 ecx
  0036a	5f		 pop	 edi
  0036b	5e		 pop	 esi
  0036c	5b		 pop	 ebx
  0036d	8b e5		 mov	 esp, ebp
  0036f	5d		 pop	 ebp
  00370	c3		 ret	 0
_TEXT	ENDS
;	COMDAT text$x
text$x	SEGMENT
__unwindfunclet$??$?6U?$char_traits@D@std@@@std@@YAAAV?$basic_ostream@DU?$char_traits@D@std@@@0@AAV10@PBD@Z$2:
  00000	8d 8d 74 ff ff
	ff		 lea	 ecx, DWORD PTR __Ok$[ebp]
  00006	e9 00 00 00 00	 jmp	 ??1sentry@?$basic_ostream@DU?$char_traits@D@std@@@std@@QAE@XZ ; std::basic_ostream<char,std::char_traits<char> >::sentry::~sentry
  0000b	cc		 int	 3
  0000c	cc		 int	 3
  0000d	cc		 int	 3
  0000e	cc		 int	 3
  0000f	cc		 int	 3
__ehhandler$??$?6U?$char_traits@D@std@@@std@@YAAAV?$basic_ostream@DU?$char_traits@D@std@@@0@AAV10@PBD@Z:
  00010	90		 npad	 1
  00011	90		 npad	 1
  00012	8b 54 24 08	 mov	 edx, DWORD PTR [esp+8]
  00016	8d 42 0c	 lea	 eax, DWORD PTR [edx+12]
  00019	8b 8a 70 ff ff
	ff		 mov	 ecx, DWORD PTR [edx-144]
  0001f	33 c8		 xor	 ecx, eax
  00021	e8 00 00 00 00	 call	 @__security_check_cookie@4
  00026	b8 00 00 00 00	 mov	 eax, OFFSET __ehfuncinfo$??$?6U?$char_traits@D@std@@@std@@YAAAV?$basic_ostream@DU?$char_traits@D@std@@@0@AAV10@PBD@Z
  0002b	e9 00 00 00 00	 jmp	 ___CxxFrameHandler3
text$x	ENDS
??$?6U?$char_traits@D@std@@@std@@YAAAV?$basic_ostream@DU?$char_traits@D@std@@@0@AAV10@PBD@Z ENDP ; std::operator<<<std::char_traits<char> >
; Function compile flags: /Odtp
; File C:\Program Files\Microsoft Visual Studio\2022\Community\VC\Tools\MSVC\14.31.31103\include\ostream
;	COMDAT ??$endl@DU?$char_traits@D@std@@@std@@YAAAV?$basic_ostream@DU?$char_traits@D@std@@@0@AAV10@@Z
_TEXT	SEGMENT
__Ostr$ = 8						; size = 4
??$endl@DU?$char_traits@D@std@@@std@@YAAAV?$basic_ostream@DU?$char_traits@D@std@@@0@AAV10@@Z PROC ; std::endl<char,std::char_traits<char> >, COMDAT

; 1001 :     basic_ostream<_Elem, _Traits>& _Ostr) { // insert newline and flush stream

  00000	55		 push	 ebp
  00001	8b ec		 mov	 ebp, esp
  00003	b9 00 00 00 00	 mov	 ecx, OFFSET __033B95B1_ostream
  00008	e8 00 00 00 00	 call	 @__CheckForDebuggerJustMyCode@4

; 1002 :     _Ostr.put(_Ostr.widen('\n'));

  0000d	6a 0a		 push	 10			; 0000000aH
  0000f	8b 45 08	 mov	 eax, DWORD PTR __Ostr$[ebp]
  00012	8b 08		 mov	 ecx, DWORD PTR [eax]
  00014	8b 55 08	 mov	 edx, DWORD PTR __Ostr$[ebp]
  00017	03 51 04	 add	 edx, DWORD PTR [ecx+4]
  0001a	8b ca		 mov	 ecx, edx
  0001c	ff 15 00 00 00
	00		 call	 DWORD PTR __imp_?widen@?$basic_ios@DU?$char_traits@D@std@@@std@@QBEDD@Z
  00022	0f b6 c0	 movzx	 eax, al
  00025	50		 push	 eax
  00026	8b 4d 08	 mov	 ecx, DWORD PTR __Ostr$[ebp]
  00029	ff 15 00 00 00
	00		 call	 DWORD PTR __imp_?put@?$basic_ostream@DU?$char_traits@D@std@@@std@@QAEAAV12@D@Z

; 1003 :     _Ostr.flush();

  0002f	8b 4d 08	 mov	 ecx, DWORD PTR __Ostr$[ebp]
  00032	ff 15 00 00 00
	00		 call	 DWORD PTR __imp_?flush@?$basic_ostream@DU?$char_traits@D@std@@@std@@QAEAAV12@XZ

; 1004 :     return _Ostr;

  00038	8b 45 08	 mov	 eax, DWORD PTR __Ostr$[ebp]

; 1005 : }

  0003b	5d		 pop	 ebp
  0003c	c3		 ret	 0
??$endl@DU?$char_traits@D@std@@@std@@YAAAV?$basic_ostream@DU?$char_traits@D@std@@@0@AAV10@@Z ENDP ; std::endl<char,std::char_traits<char> >
_TEXT	ENDS
; Function compile flags: /Odtp
; File C:\Users\aleja\Documents\Repositorios\ASD\Trabajos\I. 3C - Límites ILP\p3c_presentacion_alumnos_VS2103_RDTSC\p3c_rdtsc.cpp
_TEXT	SEGMENT
_c2$ = -140						; size = 64
_c1$ = -76						; size = 64
_var1$ = -12						; size = 4
_var2$ = -8						; size = 4
_i$ = -4						; size = 4
_argc$ = 8						; size = 4
_argv$ = 12						; size = 4
_main	PROC

; 224  : int main( int argc, char** argv ) {

  00000	55		 push	 ebp
  00001	8b ec		 mov	 ebp, esp
  00003	81 ec 8c 00 00
	00		 sub	 esp, 140		; 0000008cH
  00009	b9 00 00 00 00	 mov	 ecx, OFFSET __438567F7_p3c_rdtsc@cpp
  0000e	e8 00 00 00 00	 call	 @__CheckForDebuggerJustMyCode@4

; 225  : 
; 226  : 	float var1, var2;
; 227  : 	int i;
; 228  : 
; 229  : 	QPTimer c1, c2;

  00013	8d 4d b4	 lea	 ecx, DWORD PTR _c1$[ebp]
  00016	e8 00 00 00 00	 call	 ??0QPTimer@@QAE@XZ	; QPTimer::QPTimer
  0001b	8d 8d 74 ff ff
	ff		 lea	 ecx, DWORD PTR _c2$[ebp]
  00021	e8 00 00 00 00	 call	 ??0QPTimer@@QAE@XZ	; QPTimer::QPTimer

; 230  : 
; 231  : 	c1.Calibrate(); //calibrates timer overhead and set cronometer to zero	

  00026	8d 4d b4	 lea	 ecx, DWORD PTR _c1$[ebp]
  00029	e8 00 00 00 00	 call	 ?Calibrate@QPTimer@@QAEXXZ ; QPTimer::Calibrate

; 232  : 	// measuring tests
; 233  : 	for (i=0;i<N_REPETIC;i++)

  0002e	c7 45 fc 00 00
	00 00		 mov	 DWORD PTR _i$[ebp], 0
  00035	eb 09		 jmp	 SHORT $LN4@main
$LN2@main:
  00037	8b 45 fc	 mov	 eax, DWORD PTR _i$[ebp]
  0003a	83 c0 01	 add	 eax, 1
  0003d	89 45 fc	 mov	 DWORD PTR _i$[ebp], eax
$LN4@main:
  00040	81 7d fc 00 01
	00 00		 cmp	 DWORD PTR _i$[ebp], 256	; 00000100H
  00047	7d 27		 jge	 SHORT $LN3@main

; 234  : 	{
; 235  : 		vectors_init ();

  00049	e8 00 00 00 00	 call	 ?vectors_init@@YAXXZ	; vectors_init

; 236  : 		c1.Start();  // start timer

  0004e	8d 4d b4	 lea	 ecx, DWORD PTR _c1$[ebp]
  00051	e8 00 00 00 00	 call	 ?Start@QPTimer@@QAEXXZ	; QPTimer::Start

; 237  : 		var1=example(); // Do the test

  00056	e8 00 00 00 00	 call	 ?example@@YAMXZ		; example
  0005b	d9 5d f4	 fstp	 DWORD PTR _var1$[ebp]

; 238  : 		c1.Stop();  // stop timer

  0005e	8d 4d b4	 lea	 ecx, DWORD PTR _c1$[ebp]
  00061	e8 00 00 00 00	 call	 ?Stop@QPTimer@@QAEXXZ	; QPTimer::Stop

; 239  : 		c1.Reset();

  00066	8d 4d b4	 lea	 ecx, DWORD PTR _c1$[ebp]
  00069	e8 00 00 00 00	 call	 ?Reset@QPTimer@@QAEXXZ	; QPTimer::Reset

; 240  : 	} 

  0006e	eb c7		 jmp	 SHORT $LN2@main
$LN3@main:

; 241  : 	// end of    testing
; 242  : 
; 243  : 	c2.Calibrate(); //calibrates timer overhead and set cronometer to zero	

  00070	8d 8d 74 ff ff
	ff		 lea	 ecx, DWORD PTR _c2$[ebp]
  00076	e8 00 00 00 00	 call	 ?Calibrate@QPTimer@@QAEXXZ ; QPTimer::Calibrate

; 244  : 	// measuring tests
; 245  : 	for (i=0;i<N_REPETIC;i++)

  0007b	c7 45 fc 00 00
	00 00		 mov	 DWORD PTR _i$[ebp], 0
  00082	eb 09		 jmp	 SHORT $LN7@main
$LN5@main:
  00084	8b 4d fc	 mov	 ecx, DWORD PTR _i$[ebp]
  00087	83 c1 01	 add	 ecx, 1
  0008a	89 4d fc	 mov	 DWORD PTR _i$[ebp], ecx
$LN7@main:
  0008d	81 7d fc 00 01
	00 00		 cmp	 DWORD PTR _i$[ebp], 256	; 00000100H
  00094	7d 30		 jge	 SHORT $LN6@main

; 246  : 	{
; 247  : 		vectors_init ();

  00096	e8 00 00 00 00	 call	 ?vectors_init@@YAXXZ	; vectors_init

; 248  : 		c2.Start();  // start timer

  0009b	8d 8d 74 ff ff
	ff		 lea	 ecx, DWORD PTR _c2$[ebp]
  000a1	e8 00 00 00 00	 call	 ?Start@QPTimer@@QAEXXZ	; QPTimer::Start

; 249  : 		var2=problem(); // Do the test

  000a6	e8 00 00 00 00	 call	 ?problem@@YAMXZ		; problem
  000ab	d9 5d f8	 fstp	 DWORD PTR _var2$[ebp]

; 250  : 		c2.Stop();  // stop timer

  000ae	8d 8d 74 ff ff
	ff		 lea	 ecx, DWORD PTR _c2$[ebp]
  000b4	e8 00 00 00 00	 call	 ?Stop@QPTimer@@QAEXXZ	; QPTimer::Stop

; 251  : 		c2.Reset();

  000b9	8d 8d 74 ff ff
	ff		 lea	 ecx, DWORD PTR _c2$[ebp]
  000bf	e8 00 00 00 00	 call	 ?Reset@QPTimer@@QAEXXZ	; QPTimer::Reset

; 252  : 	} 

  000c4	eb be		 jmp	 SHORT $LN5@main
$LN6@main:

; 253  : 	// end of    testing
; 254  : 
; 255  : 	cout << endl << "ONLY PRINTING OUTPUT VARIABLE TO PREVENT THAT THE COMPILER ELIMINATES FUNCTION CALLS: " 

  000c6	68 00 00 00 00	 push	 OFFSET ??$endl@DU?$char_traits@D@std@@@std@@YAAAV?$basic_ostream@DU?$char_traits@D@std@@@0@AAV10@@Z ; std::endl<char,std::char_traits<char> >
  000cb	51		 push	 ecx
  000cc	c5 fa 10 45 f8	 vmovss	 xmm0, DWORD PTR _var2$[ebp]
  000d1	c5 fa 11 04 24	 vmovss	 DWORD PTR [esp], xmm0
  000d6	68 00 00 00 00	 push	 OFFSET $SG121624
  000db	51		 push	 ecx
  000dc	c5 fa 10 45 f4	 vmovss	 xmm0, DWORD PTR _var1$[ebp]
  000e1	c5 fa 11 04 24	 vmovss	 DWORD PTR [esp], xmm0
  000e6	68 00 00 00 00	 push	 OFFSET $SG121625
  000eb	68 00 00 00 00	 push	 OFFSET ??$endl@DU?$char_traits@D@std@@@std@@YAAAV?$basic_ostream@DU?$char_traits@D@std@@@0@AAV10@@Z ; std::endl<char,std::char_traits<char> >
  000f0	8b 0d 00 00 00
	00		 mov	 ecx, DWORD PTR __imp_?cout@std@@3V?$basic_ostream@DU?$char_traits@D@std@@@1@A
  000f6	ff 15 00 00 00
	00		 call	 DWORD PTR __imp_??6?$basic_ostream@DU?$char_traits@D@std@@@std@@QAEAAV01@P6AAAV01@AAV01@@Z@Z
  000fc	50		 push	 eax
  000fd	e8 00 00 00 00	 call	 ??$?6U?$char_traits@D@std@@@std@@YAAAV?$basic_ostream@DU?$char_traits@D@std@@@0@AAV10@PBD@Z ; std::operator<<<std::char_traits<char> >
  00102	83 c4 08	 add	 esp, 8
  00105	8b c8		 mov	 ecx, eax
  00107	ff 15 00 00 00
	00		 call	 DWORD PTR __imp_??6?$basic_ostream@DU?$char_traits@D@std@@@std@@QAEAAV01@M@Z
  0010d	50		 push	 eax
  0010e	e8 00 00 00 00	 call	 ??$?6U?$char_traits@D@std@@@std@@YAAAV?$basic_ostream@DU?$char_traits@D@std@@@0@AAV10@PBD@Z ; std::operator<<<std::char_traits<char> >
  00113	83 c4 08	 add	 esp, 8
  00116	8b c8		 mov	 ecx, eax
  00118	ff 15 00 00 00
	00		 call	 DWORD PTR __imp_??6?$basic_ostream@DU?$char_traits@D@std@@@std@@QAEAAV01@M@Z
  0011e	8b c8		 mov	 ecx, eax
  00120	ff 15 00 00 00
	00		 call	 DWORD PTR __imp_??6?$basic_ostream@DU?$char_traits@D@std@@@std@@QAEAAV01@P6AAAV01@AAV01@@Z@Z

; 256  : 		<< var1 << ", " << var2 << endl;
; 257  : 
; 258  : 	cout << "-Number of elements N_ELEM: " << N_ELEM << endl;

  00126	68 00 00 00 00	 push	 OFFSET ??$endl@DU?$char_traits@D@std@@@std@@YAAAV?$basic_ostream@DU?$char_traits@D@std@@@0@AAV10@@Z ; std::endl<char,std::char_traits<char> >
  0012b	68 00 08 00 00	 push	 2048			; 00000800H
  00130	68 00 00 00 00	 push	 OFFSET $SG121626
  00135	8b 15 00 00 00
	00		 mov	 edx, DWORD PTR __imp_?cout@std@@3V?$basic_ostream@DU?$char_traits@D@std@@@1@A
  0013b	52		 push	 edx
  0013c	e8 00 00 00 00	 call	 ??$?6U?$char_traits@D@std@@@std@@YAAAV?$basic_ostream@DU?$char_traits@D@std@@@0@AAV10@PBD@Z ; std::operator<<<std::char_traits<char> >
  00141	83 c4 08	 add	 esp, 8
  00144	8b c8		 mov	 ecx, eax
  00146	ff 15 00 00 00
	00		 call	 DWORD PTR __imp_??6?$basic_ostream@DU?$char_traits@D@std@@@std@@QAEAAV01@H@Z
  0014c	8b c8		 mov	 ecx, eax
  0014e	ff 15 00 00 00
	00		 call	 DWORD PTR __imp_??6?$basic_ostream@DU?$char_traits@D@std@@@std@@QAEAAV01@P6AAAV01@AAV01@@Z@Z

; 259  : 	cout << "-Number of measures example: " << c1.NumberOfMeasures() << endl;

  00154	68 00 00 00 00	 push	 OFFSET ??$endl@DU?$char_traits@D@std@@@std@@YAAAV?$basic_ostream@DU?$char_traits@D@std@@@0@AAV10@@Z ; std::endl<char,std::char_traits<char> >
  00159	8d 4d b4	 lea	 ecx, DWORD PTR _c1$[ebp]
  0015c	e8 00 00 00 00	 call	 ?NumberOfMeasures@QPTimer@@QAEHXZ ; QPTimer::NumberOfMeasures
  00161	50		 push	 eax
  00162	68 00 00 00 00	 push	 OFFSET $SG121627
  00167	a1 00 00 00 00	 mov	 eax, DWORD PTR __imp_?cout@std@@3V?$basic_ostream@DU?$char_traits@D@std@@@1@A
  0016c	50		 push	 eax
  0016d	e8 00 00 00 00	 call	 ??$?6U?$char_traits@D@std@@@std@@YAAAV?$basic_ostream@DU?$char_traits@D@std@@@0@AAV10@PBD@Z ; std::operator<<<std::char_traits<char> >
  00172	83 c4 08	 add	 esp, 8
  00175	8b c8		 mov	 ecx, eax
  00177	ff 15 00 00 00
	00		 call	 DWORD PTR __imp_??6?$basic_ostream@DU?$char_traits@D@std@@@std@@QAEAAV01@H@Z
  0017d	8b c8		 mov	 ecx, eax
  0017f	ff 15 00 00 00
	00		 call	 DWORD PTR __imp_??6?$basic_ostream@DU?$char_traits@D@std@@@std@@QAEAAV01@P6AAAV01@AAV01@@Z@Z

; 260  : 	cout << "-Number of measures problem: " << c2.NumberOfMeasures() << endl;

  00185	68 00 00 00 00	 push	 OFFSET ??$endl@DU?$char_traits@D@std@@@std@@YAAAV?$basic_ostream@DU?$char_traits@D@std@@@0@AAV10@@Z ; std::endl<char,std::char_traits<char> >
  0018a	8d 8d 74 ff ff
	ff		 lea	 ecx, DWORD PTR _c2$[ebp]
  00190	e8 00 00 00 00	 call	 ?NumberOfMeasures@QPTimer@@QAEHXZ ; QPTimer::NumberOfMeasures
  00195	50		 push	 eax
  00196	68 00 00 00 00	 push	 OFFSET $SG121628
  0019b	8b 0d 00 00 00
	00		 mov	 ecx, DWORD PTR __imp_?cout@std@@3V?$basic_ostream@DU?$char_traits@D@std@@@1@A
  001a1	51		 push	 ecx
  001a2	e8 00 00 00 00	 call	 ??$?6U?$char_traits@D@std@@@std@@YAAAV?$basic_ostream@DU?$char_traits@D@std@@@0@AAV10@PBD@Z ; std::operator<<<std::char_traits<char> >
  001a7	83 c4 08	 add	 esp, 8
  001aa	8b c8		 mov	 ecx, eax
  001ac	ff 15 00 00 00
	00		 call	 DWORD PTR __imp_??6?$basic_ostream@DU?$char_traits@D@std@@@std@@QAEAAV01@H@Z
  001b2	8b c8		 mov	 ecx, eax
  001b4	ff 15 00 00 00
	00		 call	 DWORD PTR __imp_??6?$basic_ostream@DU?$char_traits@D@std@@@std@@QAEAAV01@P6AAAV01@AAV01@@Z@Z

; 261  : 	cout << endl;

  001ba	68 00 00 00 00	 push	 OFFSET ??$endl@DU?$char_traits@D@std@@@std@@YAAAV?$basic_ostream@DU?$char_traits@D@std@@@0@AAV10@@Z ; std::endl<char,std::char_traits<char> >
  001bf	8b 0d 00 00 00
	00		 mov	 ecx, DWORD PTR __imp_?cout@std@@3V?$basic_ostream@DU?$char_traits@D@std@@@1@A
  001c5	ff 15 00 00 00
	00		 call	 DWORD PTR __imp_??6?$basic_ostream@DU?$char_traits@D@std@@@std@@QAEAAV01@P6AAAV01@AAV01@@Z@Z

; 262  : 
; 263  : 	// uncomment this if more timing results were needed:
; 264  : 	/*c1.PrintMinimumTime   (" Minimum time in seconds for example is:   ");
; 265  : 	c1.PrintMeanTime      (" Mean time in seconds    for example is:   ");
; 266  : 
; 267  : 	c2.PrintMinimumCycles (" Minimum time in cycles for problem  is:   ");
; 268  : 	c2.PrintMeanCycles    (" Mean time in cycles for problem is    :   ");
; 269  : 	*/
; 270  : 
; 271  : 	c1.PrintMinimumCyclesByIteration  (" Minimum time in cycles for an element of 'example' is: ", N_ELEM);

  001cb	68 00 08 00 00	 push	 2048			; 00000800H
  001d0	68 00 00 00 00	 push	 OFFSET $SG121629
  001d5	8d 4d b4	 lea	 ecx, DWORD PTR _c1$[ebp]
  001d8	e8 00 00 00 00	 call	 ?PrintMinimumCyclesByIteration@QPTimer@@QAEXPBDH@Z ; QPTimer::PrintMinimumCyclesByIteration

; 272  : 	cout << endl  ;

  001dd	68 00 00 00 00	 push	 OFFSET ??$endl@DU?$char_traits@D@std@@@std@@YAAAV?$basic_ostream@DU?$char_traits@D@std@@@0@AAV10@@Z ; std::endl<char,std::char_traits<char> >
  001e2	8b 0d 00 00 00
	00		 mov	 ecx, DWORD PTR __imp_?cout@std@@3V?$basic_ostream@DU?$char_traits@D@std@@@1@A
  001e8	ff 15 00 00 00
	00		 call	 DWORD PTR __imp_??6?$basic_ostream@DU?$char_traits@D@std@@@std@@QAEAAV01@P6AAAV01@AAV01@@Z@Z

; 273  : 
; 274  : 	c2.PrintMinimumCyclesByIteration  (" Minimum time in cycles for an element of 'problem' is: ", N_ELEM);

  001ee	68 00 08 00 00	 push	 2048			; 00000800H
  001f3	68 00 00 00 00	 push	 OFFSET $SG121630
  001f8	8d 8d 74 ff ff
	ff		 lea	 ecx, DWORD PTR _c2$[ebp]
  001fe	e8 00 00 00 00	 call	 ?PrintMinimumCyclesByIteration@QPTimer@@QAEXPBDH@Z ; QPTimer::PrintMinimumCyclesByIteration

; 275  : 	cout << endl;

  00203	68 00 00 00 00	 push	 OFFSET ??$endl@DU?$char_traits@D@std@@@std@@YAAAV?$basic_ostream@DU?$char_traits@D@std@@@0@AAV10@@Z ; std::endl<char,std::char_traits<char> >
  00208	8b 0d 00 00 00
	00		 mov	 ecx, DWORD PTR __imp_?cout@std@@3V?$basic_ostream@DU?$char_traits@D@std@@@1@A
  0020e	ff 15 00 00 00
	00		 call	 DWORD PTR __imp_??6?$basic_ostream@DU?$char_traits@D@std@@@std@@QAEAAV01@P6AAAV01@AAV01@@Z@Z

; 276  : 	cout << endl;

  00214	68 00 00 00 00	 push	 OFFSET ??$endl@DU?$char_traits@D@std@@@std@@YAAAV?$basic_ostream@DU?$char_traits@D@std@@@0@AAV10@@Z ; std::endl<char,std::char_traits<char> >
  00219	8b 0d 00 00 00
	00		 mov	 ecx, DWORD PTR __imp_?cout@std@@3V?$basic_ostream@DU?$char_traits@D@std@@@1@A
  0021f	ff 15 00 00 00
	00		 call	 DWORD PTR __imp_??6?$basic_ostream@DU?$char_traits@D@std@@@std@@QAEAAV01@P6AAAV01@AAV01@@Z@Z

; 277  : }

  00225	33 c0		 xor	 eax, eax
  00227	8b e5		 mov	 esp, ebp
  00229	5d		 pop	 ebp
  0022a	c3		 ret	 0
_main	ENDP
_TEXT	ENDS
; Function compile flags: /Odtp
; File C:\Users\aleja\Documents\Repositorios\ASD\Trabajos\I. 3C - Límites ILP\p3c_presentacion_alumnos_VS2103_RDTSC\p3c_rdtsc.cpp
_TEXT	SEGMENT
_i$ = -4						; size = 4
?example@@YAMXZ PROC					; example

; 212  : {

  00000	55		 push	 ebp
  00001	8b ec		 mov	 ebp, esp
  00003	51		 push	 ecx
  00004	b9 00 00 00 00	 mov	 ecx, OFFSET __438567F7_p3c_rdtsc@cpp
  00009	e8 00 00 00 00	 call	 @__CheckForDebuggerJustMyCode@4

; 213  : 	int i;
; 214  : 
; 215  : 	for (i=0;i<N_ELEM;i++)

  0000e	c7 45 fc 00 00
	00 00		 mov	 DWORD PTR _i$[ebp], 0
  00015	eb 09		 jmp	 SHORT $LN4@example
$LN2@example:
  00017	8b 45 fc	 mov	 eax, DWORD PTR _i$[ebp]
  0001a	83 c0 01	 add	 eax, 1
  0001d	89 45 fc	 mov	 DWORD PTR _i$[ebp], eax
$LN4@example:
  00020	81 7d fc 00 08
	00 00		 cmp	 DWORD PTR _i$[ebp], 2048 ; 00000800H
  00027	7d 22		 jge	 SHORT $LN3@example

; 216  : 	{
; 217  : 		a[i]=b[i]+8;

  00029	8b 4d fc	 mov	 ecx, DWORD PTR _i$[ebp]
  0002c	c5 fa 10 04 8d
	00 00 00 00	 vmovss	 xmm0, DWORD PTR ?b@@3PAMA[ecx*4]
  00035	c5 fa 58 05 00
	00 00 00	 vaddss	 xmm0, xmm0, DWORD PTR __real@41000000
  0003d	8b 55 fc	 mov	 edx, DWORD PTR _i$[ebp]
  00040	c5 fa 11 04 95
	00 00 00 00	 vmovss	 DWORD PTR ?a@@3PAMA[edx*4], xmm0

; 218  : 	}

  00049	eb cc		 jmp	 SHORT $LN2@example
$LN3@example:

; 219  : 	
; 220  : 	return a[N_ELEM-1 ];

  0004b	b8 04 00 00 00	 mov	 eax, 4
  00050	69 c8 ff 07 00
	00		 imul	 ecx, eax, 2047
  00056	d9 81 00 00 00
	00		 fld	 DWORD PTR ?a@@3PAMA[ecx]

; 221  : }

  0005c	8b e5		 mov	 esp, ebp
  0005e	5d		 pop	 ebp
  0005f	c3		 ret	 0
?example@@YAMXZ ENDP					; example
_TEXT	ENDS
; Function compile flags: /Odtp
; File C:\Users\aleja\Documents\Repositorios\ASD\Trabajos\I. 3C - Límites ILP\p3c_presentacion_alumnos_VS2103_RDTSC\p3c_rdtsc.cpp
_TEXT	SEGMENT
_z$ = -8						; size = 4
_i$ = -4						; size = 4
?problem@@YAMXZ PROC					; problem

; 104  : {

  00000	55		 push	 ebp
  00001	8b ec		 mov	 ebp, esp
  00003	83 ec 08	 sub	 esp, 8
  00006	b9 00 00 00 00	 mov	 ecx, OFFSET __438567F7_p3c_rdtsc@cpp
  0000b	e8 00 00 00 00	 call	 @__CheckForDebuggerJustMyCode@4

; 105  : 	int  i;
; 106  : 	float z = 0.0; 

  00010	c5 f8 57 c0	 vxorps	 xmm0, xmm0, xmm0
  00014	c5 fa 11 45 f8	 vmovss	 DWORD PTR _z$[ebp], xmm0

; 107  : 
; 108  : 	for (i=0;i<N_ELEM;i++)

  00019	c7 45 fc 00 00
	00 00		 mov	 DWORD PTR _i$[ebp], 0
  00020	eb 09		 jmp	 SHORT $LN4@problem
$LN2@problem:
  00022	8b 45 fc	 mov	 eax, DWORD PTR _i$[ebp]
  00025	83 c0 01	 add	 eax, 1
  00028	89 45 fc	 mov	 DWORD PTR _i$[ebp], eax
$LN4@problem:
  0002b	81 7d fc 00 08
	00 00		 cmp	 DWORD PTR _i$[ebp], 2048 ; 00000800H
  00032	7d 18		 jge	 SHORT $LN3@problem

; 109  : 	{
; 110  : 		z = z + a[i];

  00034	8b 4d fc	 mov	 ecx, DWORD PTR _i$[ebp]
  00037	c5 fa 10 45 f8	 vmovss	 xmm0, DWORD PTR _z$[ebp]
  0003c	c5 fa 58 04 8d
	00 00 00 00	 vaddss	 xmm0, xmm0, DWORD PTR ?a@@3PAMA[ecx*4]
  00045	c5 fa 11 45 f8	 vmovss	 DWORD PTR _z$[ebp], xmm0

; 111  : 	}

  0004a	eb d6		 jmp	 SHORT $LN2@problem
$LN3@problem:

; 112  : 
; 113  : 	return z;

  0004c	d9 45 f8	 fld	 DWORD PTR _z$[ebp]

; 114  : }

  0004f	8b e5		 mov	 esp, ebp
  00051	5d		 pop	 ebp
  00052	c3		 ret	 0
?problem@@YAMXZ ENDP					; problem
_TEXT	ENDS
; Function compile flags: /Odtp
; File C:\Users\aleja\Documents\Repositorios\ASD\Trabajos\I. 3C - Límites ILP\p3c_presentacion_alumnos_VS2103_RDTSC\p3c_rdtsc.cpp
_TEXT	SEGMENT
_i$ = -4						; size = 4
?vectors_init@@YAXXZ PROC				; vectors_init

; 62   : {

  00000	55		 push	 ebp
  00001	8b ec		 mov	 ebp, esp
  00003	51		 push	 ecx
  00004	b9 00 00 00 00	 mov	 ecx, OFFSET __438567F7_p3c_rdtsc@cpp
  00009	e8 00 00 00 00	 call	 @__CheckForDebuggerJustMyCode@4

; 63   : 	int i;
; 64   : 	for (i=0;i<N_ELEM;i++)

  0000e	c7 45 fc 00 00
	00 00		 mov	 DWORD PTR _i$[ebp], 0
  00015	eb 09		 jmp	 SHORT $LN4@vectors_in
$LN2@vectors_in:
  00017	8b 45 fc	 mov	 eax, DWORD PTR _i$[ebp]
  0001a	83 c0 01	 add	 eax, 1
  0001d	89 45 fc	 mov	 DWORD PTR _i$[ebp], eax
$LN4@vectors_in:
  00020	81 7d fc 00 08
	00 00		 cmp	 DWORD PTR _i$[ebp], 2048 ; 00000800H
  00027	0f 8d 09 01 00
	00		 jge	 $LN3@vectors_in

; 65   : 	{
; 66   : 		// a[i] must have little values to avoid overflow in pp1()
; 67   : 		a[i]=(float)rand()/(float)RAND_MAX;

  0002d	ff 15 00 00 00
	00		 call	 DWORD PTR __imp__rand
  00033	c5 fa 2a c0	 vcvtsi2ss xmm0, xmm0, eax
  00037	c5 fa 5e 05 00
	00 00 00	 vdivss	 xmm0, xmm0, DWORD PTR __real@46fffe00
  0003f	8b 4d fc	 mov	 ecx, DWORD PTR _i$[ebp]
  00042	c5 fa 11 04 8d
	00 00 00 00	 vmovss	 DWORD PTR ?a@@3PAMA[ecx*4], xmm0

; 68   : 		b[i]=(float)i/5;

  0004b	c5 fa 2a 45 fc	 vcvtsi2ss xmm0, xmm0, DWORD PTR _i$[ebp]
  00050	c5 fa 5e 05 00
	00 00 00	 vdivss	 xmm0, xmm0, DWORD PTR __real@40a00000
  00058	8b 55 fc	 mov	 edx, DWORD PTR _i$[ebp]
  0005b	c5 fa 11 04 95
	00 00 00 00	 vmovss	 DWORD PTR ?b@@3PAMA[edx*4], xmm0

; 69   : 		c[i]=(float)i/6;

  00064	c5 fa 2a 45 fc	 vcvtsi2ss xmm0, xmm0, DWORD PTR _i$[ebp]
  00069	c5 fa 5e 05 00
	00 00 00	 vdivss	 xmm0, xmm0, DWORD PTR __real@40c00000
  00071	8b 45 fc	 mov	 eax, DWORD PTR _i$[ebp]
  00074	c5 fa 11 04 85
	00 00 00 00	 vmovss	 DWORD PTR ?c@@3PAMA[eax*4], xmm0

; 70   : 		d[i]=(float)i/7;

  0007d	c5 fa 2a 45 fc	 vcvtsi2ss xmm0, xmm0, DWORD PTR _i$[ebp]
  00082	c5 fa 5e 05 00
	00 00 00	 vdivss	 xmm0, xmm0, DWORD PTR __real@40e00000
  0008a	8b 4d fc	 mov	 ecx, DWORD PTR _i$[ebp]
  0008d	c5 fa 11 04 8d
	00 00 00 00	 vmovss	 DWORD PTR ?d@@3PAMA[ecx*4], xmm0

; 71   : 		e[i]=(float)i/8;

  00096	c5 fa 2a 45 fc	 vcvtsi2ss xmm0, xmm0, DWORD PTR _i$[ebp]
  0009b	c5 fa 5e 05 00
	00 00 00	 vdivss	 xmm0, xmm0, DWORD PTR __real@41000000
  000a3	8b 55 fc	 mov	 edx, DWORD PTR _i$[ebp]
  000a6	c5 fa 11 04 95
	00 00 00 00	 vmovss	 DWORD PTR ?e@@3PAMA[edx*4], xmm0

; 72   : 		f[i]=(float)i/9;

  000af	c5 fa 2a 45 fc	 vcvtsi2ss xmm0, xmm0, DWORD PTR _i$[ebp]
  000b4	c5 fa 5e 05 00
	00 00 00	 vdivss	 xmm0, xmm0, DWORD PTR __real@41100000
  000bc	8b 45 fc	 mov	 eax, DWORD PTR _i$[ebp]
  000bf	c5 fa 11 04 85
	00 00 00 00	 vmovss	 DWORD PTR ?f@@3PAMA[eax*4], xmm0

; 73   : 		g[i]=(float)i/10;

  000c8	c5 fa 2a 45 fc	 vcvtsi2ss xmm0, xmm0, DWORD PTR _i$[ebp]
  000cd	c5 fa 5e 05 00
	00 00 00	 vdivss	 xmm0, xmm0, DWORD PTR __real@41200000
  000d5	8b 4d fc	 mov	 ecx, DWORD PTR _i$[ebp]
  000d8	c5 fa 11 04 8d
	00 00 00 00	 vmovss	 DWORD PTR ?g@@3PAMA[ecx*4], xmm0

; 74   : 		h[i]=(float)i/11;

  000e1	c5 fa 2a 45 fc	 vcvtsi2ss xmm0, xmm0, DWORD PTR _i$[ebp]
  000e6	c5 fa 5e 05 00
	00 00 00	 vdivss	 xmm0, xmm0, DWORD PTR __real@41300000
  000ee	8b 55 fc	 mov	 edx, DWORD PTR _i$[ebp]
  000f1	c5 fa 11 04 95
	00 00 00 00	 vmovss	 DWORD PTR ?h@@3PAMA[edx*4], xmm0

; 75   : 
; 76   : 		a_int[i]=i;

  000fa	8b 45 fc	 mov	 eax, DWORD PTR _i$[ebp]
  000fd	8b 4d fc	 mov	 ecx, DWORD PTR _i$[ebp]
  00100	89 0c 85 00 00
	00 00		 mov	 DWORD PTR ?a_int@@3PAHA[eax*4], ecx

; 77   : 
; 78   : 		cond1[i]=1;

  00107	8b 55 fc	 mov	 edx, DWORD PTR _i$[ebp]
  0010a	c7 04 95 00 00
	00 00 01 00 00
	00		 mov	 DWORD PTR ?cond1@@3PAHA[edx*4], 1

; 79   : 		cond3[i]=rand()%2;

  00115	ff 15 00 00 00
	00		 call	 DWORD PTR __imp__rand
  0011b	25 01 00 00 80	 and	 eax, -2147483647	; 80000001H
  00120	79 05		 jns	 SHORT $LN9@vectors_in
  00122	48		 dec	 eax
  00123	83 c8 fe	 or	 eax, -2			; fffffffeH
  00126	40		 inc	 eax
$LN9@vectors_in:
  00127	8b 4d fc	 mov	 ecx, DWORD PTR _i$[ebp]
  0012a	89 04 8d 00 00
	00 00		 mov	 DWORD PTR ?cond3@@3PAHA[ecx*4], eax

; 80   : 	}

  00131	e9 e1 fe ff ff	 jmp	 $LN2@vectors_in
$LN3@vectors_in:

; 81   : 
; 82   : 	for (i=0;i<N_ELEM;i+=8)

  00136	c7 45 fc 00 00
	00 00		 mov	 DWORD PTR _i$[ebp], 0
  0013d	eb 09		 jmp	 SHORT $LN7@vectors_in
$LN5@vectors_in:
  0013f	8b 55 fc	 mov	 edx, DWORD PTR _i$[ebp]
  00142	83 c2 08	 add	 edx, 8
  00145	89 55 fc	 mov	 DWORD PTR _i$[ebp], edx
$LN7@vectors_in:
  00148	81 7d fc 00 08
	00 00		 cmp	 DWORD PTR _i$[ebp], 2048 ; 00000800H
  0014f	7d 75		 jge	 SHORT $LN6@vectors_in

; 83   : 	{
; 84   : 		// put here the pattern behaviour  you want; BTB is very clever !!
; 85   : 		cond2[i+0]=1;

  00151	8b 45 fc	 mov	 eax, DWORD PTR _i$[ebp]
  00154	c7 04 85 00 00
	00 00 01 00 00
	00		 mov	 DWORD PTR ?cond2@@3PAHA[eax*4], 1

; 86   : 		cond2[i+1]=0;

  0015f	8b 4d fc	 mov	 ecx, DWORD PTR _i$[ebp]
  00162	c7 04 8d 04 00
	00 00 00 00 00
	00		 mov	 DWORD PTR ?cond2@@3PAHA[ecx*4+4], 0

; 87   : 		cond2[i+2]=1;

  0016d	8b 55 fc	 mov	 edx, DWORD PTR _i$[ebp]
  00170	c7 04 95 08 00
	00 00 01 00 00
	00		 mov	 DWORD PTR ?cond2@@3PAHA[edx*4+8], 1

; 88   : 		cond2[i+3]=1;

  0017b	8b 45 fc	 mov	 eax, DWORD PTR _i$[ebp]
  0017e	c7 04 85 0c 00
	00 00 01 00 00
	00		 mov	 DWORD PTR ?cond2@@3PAHA[eax*4+12], 1

; 89   : 		cond2[i+4]=0;

  00189	8b 4d fc	 mov	 ecx, DWORD PTR _i$[ebp]
  0018c	c7 04 8d 10 00
	00 00 00 00 00
	00		 mov	 DWORD PTR ?cond2@@3PAHA[ecx*4+16], 0

; 90   : 		cond2[i+5]=1;

  00197	8b 55 fc	 mov	 edx, DWORD PTR _i$[ebp]
  0019a	c7 04 95 14 00
	00 00 01 00 00
	00		 mov	 DWORD PTR ?cond2@@3PAHA[edx*4+20], 1

; 91   : 		cond2[i+6]=1;

  001a5	8b 45 fc	 mov	 eax, DWORD PTR _i$[ebp]
  001a8	c7 04 85 18 00
	00 00 01 00 00
	00		 mov	 DWORD PTR ?cond2@@3PAHA[eax*4+24], 1

; 92   : 		cond2[i+7]=1;

  001b3	8b 4d fc	 mov	 ecx, DWORD PTR _i$[ebp]
  001b6	c7 04 8d 1c 00
	00 00 01 00 00
	00		 mov	 DWORD PTR ?cond2@@3PAHA[ecx*4+28], 1

; 93   : 	}

  001c1	e9 79 ff ff ff	 jmp	 $LN5@vectors_in
$LN6@vectors_in:

; 94   : }

  001c6	8b e5		 mov	 esp, ebp
  001c8	5d		 pop	 ebp
  001c9	c3		 ret	 0
?vectors_init@@YAXXZ ENDP				; vectors_init
_TEXT	ENDS
; Function compile flags: /Odtp
; File C:\Users\aleja\Documents\Repositorios\ASD\Trabajos\I. 3C - Límites ILP\p3c_presentacion_alumnos_VS2103_RDTSC\p3c_rdtsc.cpp
;	COMDAT ?__empty_global_delete@@YAXPAXI@Z
_TEXT	SEGMENT
___formal$ = 8						; size = 4
___formal$ = 12						; size = 4
?__empty_global_delete@@YAXPAXI@Z PROC			; __empty_global_delete, COMDAT

  00000	55		 push	 ebp
  00001	8b ec		 mov	 ebp, esp
  00003	b9 00 00 00 00	 mov	 ecx, OFFSET __438567F7_p3c_rdtsc@cpp
  00008	e8 00 00 00 00	 call	 @__CheckForDebuggerJustMyCode@4
  0000d	5d		 pop	 ebp
  0000e	c3		 ret	 0
?__empty_global_delete@@YAXPAXI@Z ENDP			; __empty_global_delete
_TEXT	ENDS
; Function compile flags: /Odtp
; File C:\Users\aleja\Documents\Repositorios\ASD\Trabajos\I. 3C - Límites ILP\p3c_presentacion_alumnos_VS2103_RDTSC\p3c_rdtsc.cpp
;	COMDAT ?__empty_global_delete@@YAXPAX@Z
_TEXT	SEGMENT
___formal$ = 8						; size = 4
?__empty_global_delete@@YAXPAX@Z PROC			; __empty_global_delete, COMDAT

  00000	55		 push	 ebp
  00001	8b ec		 mov	 ebp, esp
  00003	b9 00 00 00 00	 mov	 ecx, OFFSET __438567F7_p3c_rdtsc@cpp
  00008	e8 00 00 00 00	 call	 @__CheckForDebuggerJustMyCode@4
  0000d	5d		 pop	 ebp
  0000e	c3		 ret	 0
?__empty_global_delete@@YAXPAX@Z ENDP			; __empty_global_delete
_TEXT	ENDS
END
